
Delta_Rho_controller.elf:     file format elf32-avr

Sections:
Idx Name          Size      VMA       LMA       File off  Algn
  0 .data         0000002c  00800100  00002042  000020d6  2**0
                  CONTENTS, ALLOC, LOAD, DATA
  1 .text         00002042  00000000  00000000  00000094  2**1
                  CONTENTS, ALLOC, LOAD, READONLY, CODE
  2 .bss          000000a3  0080012c  0080012c  00002102  2**0
                  ALLOC
  3 .comment      00000030  00000000  00000000  00002102  2**0
                  CONTENTS, READONLY
  4 .note.gnu.avr.deviceinfo 00000040  00000000  00000000  00002134  2**2
                  CONTENTS, READONLY
  5 .debug_aranges 000001a0  00000000  00000000  00002174  2**0
                  CONTENTS, READONLY, DEBUGGING
  6 .debug_info   000025ef  00000000  00000000  00002314  2**0
                  CONTENTS, READONLY, DEBUGGING
  7 .debug_abbrev 00000dce  00000000  00000000  00004903  2**0
                  CONTENTS, READONLY, DEBUGGING
  8 .debug_line   00001502  00000000  00000000  000056d1  2**0
                  CONTENTS, READONLY, DEBUGGING
  9 .debug_frame  000007f8  00000000  00000000  00006bd4  2**2
                  CONTENTS, READONLY, DEBUGGING
 10 .debug_str    00000acb  00000000  00000000  000073cc  2**0
                  CONTENTS, READONLY, DEBUGGING
 11 .debug_loc    00002754  00000000  00000000  00007e97  2**0
                  CONTENTS, READONLY, DEBUGGING
 12 .debug_ranges 00000200  00000000  00000000  0000a5eb  2**0
                  CONTENTS, READONLY, DEBUGGING

Disassembly of section .text:

00000000 <__vectors>:
       0:	68 c0       	rjmp	.+208    	; 0xd2 <__ctors_end>
       2:	00 00       	nop
       4:	85 c0       	rjmp	.+266    	; 0x110 <__bad_interrupt>
       6:	00 00       	nop
       8:	83 c0       	rjmp	.+262    	; 0x110 <__bad_interrupt>
       a:	00 00       	nop
       c:	81 c0       	rjmp	.+258    	; 0x110 <__bad_interrupt>
       e:	00 00       	nop
      10:	7f c0       	rjmp	.+254    	; 0x110 <__bad_interrupt>
      12:	00 00       	nop
      14:	7d c0       	rjmp	.+250    	; 0x110 <__bad_interrupt>
      16:	00 00       	nop
      18:	7b c0       	rjmp	.+246    	; 0x110 <__bad_interrupt>
      1a:	00 00       	nop
      1c:	79 c0       	rjmp	.+242    	; 0x110 <__bad_interrupt>
      1e:	00 00       	nop
      20:	77 c0       	rjmp	.+238    	; 0x110 <__bad_interrupt>
      22:	00 00       	nop
      24:	75 c0       	rjmp	.+234    	; 0x110 <__bad_interrupt>
      26:	00 00       	nop
      28:	73 c0       	rjmp	.+230    	; 0x110 <__bad_interrupt>
      2a:	00 00       	nop
      2c:	71 c0       	rjmp	.+226    	; 0x110 <__bad_interrupt>
      2e:	00 00       	nop
      30:	6f c0       	rjmp	.+222    	; 0x110 <__bad_interrupt>
      32:	00 00       	nop
      34:	6d c0       	rjmp	.+218    	; 0x110 <__bad_interrupt>
      36:	00 00       	nop
      38:	6b c0       	rjmp	.+214    	; 0x110 <__bad_interrupt>
      3a:	00 00       	nop
      3c:	69 c0       	rjmp	.+210    	; 0x110 <__bad_interrupt>
      3e:	00 00       	nop
      40:	67 c0       	rjmp	.+206    	; 0x110 <__bad_interrupt>
      42:	00 00       	nop
      44:	65 c0       	rjmp	.+202    	; 0x110 <__bad_interrupt>
      46:	00 00       	nop
      48:	63 c0       	rjmp	.+198    	; 0x110 <__bad_interrupt>
      4a:	00 00       	nop
      4c:	61 c0       	rjmp	.+194    	; 0x110 <__bad_interrupt>
      4e:	00 00       	nop
      50:	5f c0       	rjmp	.+190    	; 0x110 <__bad_interrupt>
      52:	00 00       	nop
      54:	5d c0       	rjmp	.+186    	; 0x110 <__bad_interrupt>
      56:	00 00       	nop
      58:	5b c0       	rjmp	.+182    	; 0x110 <__bad_interrupt>
      5a:	00 00       	nop
      5c:	59 c0       	rjmp	.+178    	; 0x110 <__bad_interrupt>
      5e:	00 00       	nop
      60:	57 c0       	rjmp	.+174    	; 0x110 <__bad_interrupt>
      62:	00 00       	nop
      64:	55 c0       	rjmp	.+170    	; 0x110 <__bad_interrupt>
      66:	00 00       	nop
      68:	0c 94 de 0b 	jmp	0x17bc	; 0x17bc <__vector_26>
      6c:	51 c0       	rjmp	.+162    	; 0x110 <__bad_interrupt>
      6e:	00 00       	nop
      70:	c2 c7       	rjmp	.+3972   	; 0xff6 <__vector_28>
      72:	00 00       	nop
      74:	4d c0       	rjmp	.+154    	; 0x110 <__bad_interrupt>
      76:	00 00       	nop
      78:	4b c0       	rjmp	.+150    	; 0x110 <__bad_interrupt>
      7a:	00 00       	nop
      7c:	49 c0       	rjmp	.+146    	; 0x110 <__bad_interrupt>
      7e:	00 00       	nop
      80:	3a c1       	rjmp	.+628    	; 0x2f6 <__vector_32>
      82:	00 00       	nop
      84:	45 c0       	rjmp	.+138    	; 0x110 <__bad_interrupt>
      86:	00 00       	nop
      88:	43 c0       	rjmp	.+134    	; 0x110 <__bad_interrupt>
      8a:	00 00       	nop
      8c:	07 2c       	mov	r0, r7
      8e:	7a a5       	ldd	r23, Y+42	; 0x2a
      90:	ba 6c       	ori	r27, 0xCA	; 202
      92:	c5 90       	lpm	r12, Z+
      94:	da 3b       	cpi	r29, 0xBA	; 186
      96:	93 65       	ori	r25, 0x53	; 83
      98:	fc 8b       	std	Y+20, r31	; 0x14
      9a:	bc 53       	subi	r27, 0x3C	; 60
      9c:	f8 10       	cpse	r15, r8
      9e:	fd 3c       	cpi	r31, 0xCD	; 205
      a0:	56 92       	lac	Z, r5
      a2:	83 4d       	sbci	r24, 0xD3	; 211
      a4:	bd 87       	std	Y+13, r27	; 0x0d
      a6:	9d 3a       	cpi	r25, 0xAD	; 173
      a8:	b6 3d       	cpi	r27, 0xD6	; 214
      aa:	cb c9       	rjmp	.-3178   	; 0xfffff442 <__eeprom_end+0xff7ef442>
      ac:	bf 5b       	subi	r27, 0xBF	; 191
      ae:	be 73       	andi	r27, 0x3E	; 62
      b0:	da 0f       	add	r29, r26
      b2:	c9 3f       	cpi	r28, 0xF9	; 249
      b4:	05 a8       	ldd	r0, Z+53	; 0x35
      b6:	4c cd       	rjmp	.-1384   	; 0xfffffb50 <__eeprom_end+0xff7efb50>
      b8:	b2 d4       	rcall	.+2404   	; 0xa1e <getHome+0x36>
      ba:	4e b9       	out	0x0e, r20	; 14
      bc:	38 36       	cpi	r19, 0x68	; 104
      be:	a9 02       	muls	r26, r25
      c0:	0c 50       	subi	r16, 0x0C	; 12
      c2:	b9 91       	ld	r27, Y+
      c4:	86 88       	ldd	r8, Z+22	; 0x16
      c6:	08 3c       	cpi	r16, 0xC8	; 200
      c8:	a6 aa       	std	Z+54, r10	; 0x36
      ca:	aa 2a       	or	r10, r26
      cc:	be 00       	.word	0x00be	; ????
      ce:	00 00       	nop
      d0:	80 3f       	cpi	r24, 0xF0	; 240

000000d2 <__ctors_end>:
      d2:	11 24       	eor	r1, r1
      d4:	1f be       	out	0x3f, r1	; 63
      d6:	cf ef       	ldi	r28, 0xFF	; 255
      d8:	d0 e4       	ldi	r29, 0x40	; 64
      da:	de bf       	out	0x3e, r29	; 62
      dc:	cd bf       	out	0x3d, r28	; 61

000000de <__do_copy_data>:
      de:	11 e0       	ldi	r17, 0x01	; 1
      e0:	a0 e0       	ldi	r26, 0x00	; 0
      e2:	b1 e0       	ldi	r27, 0x01	; 1
      e4:	e2 e4       	ldi	r30, 0x42	; 66
      e6:	f0 e2       	ldi	r31, 0x20	; 32
      e8:	00 e0       	ldi	r16, 0x00	; 0
      ea:	0b bf       	out	0x3b, r16	; 59
      ec:	02 c0       	rjmp	.+4      	; 0xf2 <__do_copy_data+0x14>
      ee:	07 90       	elpm	r0, Z+
      f0:	0d 92       	st	X+, r0
      f2:	ac 32       	cpi	r26, 0x2C	; 44
      f4:	b1 07       	cpc	r27, r17
      f6:	d9 f7       	brne	.-10     	; 0xee <__do_copy_data+0x10>

000000f8 <__do_clear_bss>:
      f8:	21 e0       	ldi	r18, 0x01	; 1
      fa:	ac e2       	ldi	r26, 0x2C	; 44
      fc:	b1 e0       	ldi	r27, 0x01	; 1
      fe:	01 c0       	rjmp	.+2      	; 0x102 <.do_clear_bss_start>

00000100 <.do_clear_bss_loop>:
     100:	1d 92       	st	X+, r1

00000102 <.do_clear_bss_start>:
     102:	af 3c       	cpi	r26, 0xCF	; 207
     104:	b2 07       	cpc	r27, r18
     106:	e1 f7       	brne	.-8      	; 0x100 <.do_clear_bss_loop>
     108:	0e 94 d1 0a 	call	0x15a2	; 0x15a2 <main>
     10c:	0c 94 1f 10 	jmp	0x203e	; 0x203e <_exit>

00000110 <__bad_interrupt>:
     110:	77 cf       	rjmp	.-274    	; 0x0 <__vectors>

00000112 <ADC_Initialize>:
//		Get angle between two vectors
//========================================================================
float getAngle(Vector2D v1, Vector2D v2){
	// Catch zero-length sensor measurement
	if (v2.x == 0 && v2.y ==0){
	return 0; }
     112:	6f 92       	push	r6
     114:	7f 92       	push	r7
     116:	8f 92       	push	r8
     118:	9f 92       	push	r9
     11a:	af 92       	push	r10
     11c:	cf 92       	push	r12
     11e:	ef 92       	push	r14
     120:	ff 92       	push	r15
     122:	0f 93       	push	r16
     124:	1f 93       	push	r17
     126:	cf 93       	push	r28
     128:	df 93       	push	r29
     12a:	ac e7       	ldi	r26, 0x7C	; 124
     12c:	b0 e0       	ldi	r27, 0x00	; 0
     12e:	1c 92       	st	X, r1
     130:	ea e7       	ldi	r30, 0x7A	; 122
     132:	f0 e0       	ldi	r31, 0x00	; 0
     134:	10 82       	st	Z, r1
     136:	9b e7       	ldi	r25, 0x7B	; 123
     138:	69 2e       	mov	r6, r25
     13a:	71 2c       	mov	r7, r1
     13c:	e3 01       	movw	r28, r6
     13e:	18 82       	st	Y, r1
     140:	3e e7       	ldi	r19, 0x7E	; 126
     142:	83 2e       	mov	r8, r19
     144:	91 2c       	mov	r9, r1
     146:	e4 01       	movw	r28, r8
     148:	18 82       	st	Y, r1
     14a:	30 81       	ld	r19, Z
     14c:	d0 e8       	ldi	r29, 0x80	; 128
     14e:	8d 9f       	mul	r24, r29
     150:	c0 01       	movw	r24, r0
     152:	11 24       	eor	r1, r1
     154:	83 2b       	or	r24, r19
     156:	80 83       	st	Z, r24
     158:	e4 01       	movw	r28, r8
     15a:	68 83       	st	Y, r22
     15c:	8c 91       	ld	r24, X
     15e:	d0 e4       	ldi	r29, 0x40	; 64
     160:	4d 9f       	mul	r20, r29
     162:	a0 01       	movw	r20, r0
     164:	11 24       	eor	r1, r1
     166:	48 2b       	or	r20, r24
     168:	4c 93       	st	X, r20
     16a:	8c 91       	ld	r24, X
     16c:	50 e2       	ldi	r21, 0x20	; 32
     16e:	05 9f       	mul	r16, r21
     170:	80 01       	movw	r16, r0
     172:	11 24       	eor	r1, r1
     174:	08 2b       	or	r16, r24
     176:	0c 93       	st	X, r16
     178:	80 81       	ld	r24, Z
     17a:	28 2b       	or	r18, r24
     17c:	20 83       	st	Z, r18
     17e:	80 81       	ld	r24, Z
     180:	90 e2       	ldi	r25, 0x20	; 32
     182:	e9 9e       	mul	r14, r25
     184:	70 01       	movw	r14, r0
     186:	11 24       	eor	r1, r1
     188:	e8 2a       	or	r14, r24
     18a:	e0 82       	st	Z, r14
     18c:	d3 01       	movw	r26, r6
     18e:	8c 91       	ld	r24, X
     190:	c8 2a       	or	r12, r24
     192:	cc 92       	st	X, r12
     194:	80 81       	ld	r24, Z
     196:	aa 0c       	add	r10, r10
     198:	aa 0c       	add	r10, r10
     19a:	aa 0c       	add	r10, r10
     19c:	a8 2a       	or	r10, r24
     19e:	a0 82       	st	Z, r10
     1a0:	df 91       	pop	r29
     1a2:	cf 91       	pop	r28
     1a4:	1f 91       	pop	r17
     1a6:	0f 91       	pop	r16
     1a8:	ff 90       	pop	r15
     1aa:	ef 90       	pop	r14
     1ac:	cf 90       	pop	r12
     1ae:	af 90       	pop	r10
     1b0:	9f 90       	pop	r9
     1b2:	8f 90       	pop	r8
     1b4:	7f 90       	pop	r7
     1b6:	6f 90       	pop	r6
     1b8:	08 95       	ret

000001ba <ADC_read>:
     1ba:	90 91 7c 00 	lds	r25, 0x007C	; 0x80007c <__TEXT_REGION_LENGTH__+0x7e007c>
     1be:	90 7e       	andi	r25, 0xE0	; 224
     1c0:	90 93 7c 00 	sts	0x007C, r25	; 0x80007c <__TEXT_REGION_LENGTH__+0x7e007c>
     1c4:	90 91 7c 00 	lds	r25, 0x007C	; 0x80007c <__TEXT_REGION_LENGTH__+0x7e007c>
     1c8:	89 2b       	or	r24, r25
     1ca:	80 93 7c 00 	sts	0x007C, r24	; 0x80007c <__TEXT_REGION_LENGTH__+0x7e007c>
     1ce:	80 91 7a 00 	lds	r24, 0x007A	; 0x80007a <__TEXT_REGION_LENGTH__+0x7e007a>
     1d2:	80 64       	ori	r24, 0x40	; 64
     1d4:	80 93 7a 00 	sts	0x007A, r24	; 0x80007a <__TEXT_REGION_LENGTH__+0x7e007a>
     1d8:	80 91 7a 00 	lds	r24, 0x007A	; 0x80007a <__TEXT_REGION_LENGTH__+0x7e007a>
     1dc:	84 ff       	sbrs	r24, 4
     1de:	fc cf       	rjmp	.-8      	; 0x1d8 <ADC_read+0x1e>
     1e0:	80 91 7a 00 	lds	r24, 0x007A	; 0x80007a <__TEXT_REGION_LENGTH__+0x7e007a>
     1e4:	80 61       	ori	r24, 0x10	; 16
     1e6:	80 93 7a 00 	sts	0x007A, r24	; 0x80007a <__TEXT_REGION_LENGTH__+0x7e007a>
     1ea:	80 91 78 00 	lds	r24, 0x0078	; 0x800078 <__TEXT_REGION_LENGTH__+0x7e0078>
     1ee:	20 91 79 00 	lds	r18, 0x0079	; 0x800079 <__TEXT_REGION_LENGTH__+0x7e0079>
     1f2:	90 e0       	ldi	r25, 0x00	; 0
     1f4:	92 2b       	or	r25, r18
     1f6:	08 95       	ret

000001f8 <mC_init>:
     1f8:	af 92       	push	r10
     1fa:	cf 92       	push	r12
     1fc:	ef 92       	push	r14
     1fe:	0f 93       	push	r16
     200:	e1 e6       	ldi	r30, 0x61	; 97
     202:	f0 e0       	ldi	r31, 0x00	; 0
     204:	80 e8       	ldi	r24, 0x80	; 128
     206:	80 83       	st	Z, r24
     208:	10 82       	st	Z, r1
     20a:	11 b8       	out	0x01, r1	; 1
     20c:	12 b8       	out	0x02, r1	; 2
     20e:	8f ef       	ldi	r24, 0xFF	; 255
     210:	84 b9       	out	0x04, r24	; 4
     212:	15 b8       	out	0x05, r1	; 5
     214:	80 ef       	ldi	r24, 0xF0	; 240
     216:	87 b9       	out	0x07, r24	; 7
     218:	18 b8       	out	0x08, r1	; 8
     21a:	8b ef       	ldi	r24, 0xFB	; 251
     21c:	8a b9       	out	0x0a, r24	; 10
     21e:	1b b8       	out	0x0b, r1	; 11
     220:	91 ea       	ldi	r25, 0xA1	; 161
     222:	94 bd       	out	0x24, r25	; 36
     224:	82 e0       	ldi	r24, 0x02	; 2
     226:	85 bd       	out	0x25, r24	; 37
     228:	16 bc       	out	0x26, r1	; 38
     22a:	17 bc       	out	0x27, r1	; 39
     22c:	18 bc       	out	0x28, r1	; 40
     22e:	90 93 80 00 	sts	0x0080, r25	; 0x800080 <__TEXT_REGION_LENGTH__+0x7e0080>
     232:	80 93 81 00 	sts	0x0081, r24	; 0x800081 <__TEXT_REGION_LENGTH__+0x7e0081>
     236:	10 92 85 00 	sts	0x0085, r1	; 0x800085 <__TEXT_REGION_LENGTH__+0x7e0085>
     23a:	10 92 84 00 	sts	0x0084, r1	; 0x800084 <__TEXT_REGION_LENGTH__+0x7e0084>
     23e:	10 92 87 00 	sts	0x0087, r1	; 0x800087 <__TEXT_REGION_LENGTH__+0x7e0087>
     242:	10 92 86 00 	sts	0x0086, r1	; 0x800086 <__TEXT_REGION_LENGTH__+0x7e0086>
     246:	10 92 89 00 	sts	0x0089, r1	; 0x800089 <__TEXT_REGION_LENGTH__+0x7e0089>
     24a:	10 92 88 00 	sts	0x0088, r1	; 0x800088 <__TEXT_REGION_LENGTH__+0x7e0088>
     24e:	10 92 8b 00 	sts	0x008B, r1	; 0x80008b <__TEXT_REGION_LENGTH__+0x7e008b>
     252:	10 92 8a 00 	sts	0x008A, r1	; 0x80008a <__TEXT_REGION_LENGTH__+0x7e008a>
     256:	10 92 b6 00 	sts	0x00B6, r1	; 0x8000b6 <__TEXT_REGION_LENGTH__+0x7e00b6>
     25a:	90 93 b0 00 	sts	0x00B0, r25	; 0x8000b0 <__TEXT_REGION_LENGTH__+0x7e00b0>
     25e:	80 93 b1 00 	sts	0x00B1, r24	; 0x8000b1 <__TEXT_REGION_LENGTH__+0x7e00b1>
     262:	10 92 b2 00 	sts	0x00B2, r1	; 0x8000b2 <__TEXT_REGION_LENGTH__+0x7e00b2>
     266:	10 92 b3 00 	sts	0x00B3, r1	; 0x8000b3 <__TEXT_REGION_LENGTH__+0x7e00b3>
     26a:	10 92 b4 00 	sts	0x00B4, r1	; 0x8000b4 <__TEXT_REGION_LENGTH__+0x7e00b4>
     26e:	10 92 90 00 	sts	0x0090, r1	; 0x800090 <__TEXT_REGION_LENGTH__+0x7e0090>
     272:	9d e0       	ldi	r25, 0x0D	; 13
     274:	90 93 91 00 	sts	0x0091, r25	; 0x800091 <__TEXT_REGION_LENGTH__+0x7e0091>
     278:	10 92 95 00 	sts	0x0095, r1	; 0x800095 <__TEXT_REGION_LENGTH__+0x7e0095>
     27c:	10 92 94 00 	sts	0x0094, r1	; 0x800094 <__TEXT_REGION_LENGTH__+0x7e0094>
     280:	10 92 97 00 	sts	0x0097, r1	; 0x800097 <__TEXT_REGION_LENGTH__+0x7e0097>
     284:	10 92 96 00 	sts	0x0096, r1	; 0x800096 <__TEXT_REGION_LENGTH__+0x7e0096>
     288:	10 92 99 00 	sts	0x0099, r1	; 0x800099 <__TEXT_REGION_LENGTH__+0x7e0099>
     28c:	93 e6       	ldi	r25, 0x63	; 99
     28e:	90 93 98 00 	sts	0x0098, r25	; 0x800098 <__TEXT_REGION_LENGTH__+0x7e0098>
     292:	10 92 9b 00 	sts	0x009B, r1	; 0x80009b <__TEXT_REGION_LENGTH__+0x7e009b>
     296:	10 92 9a 00 	sts	0x009A, r1	; 0x80009a <__TEXT_REGION_LENGTH__+0x7e009a>
     29a:	10 92 6e 00 	sts	0x006E, r1	; 0x80006e <__TEXT_REGION_LENGTH__+0x7e006e>
     29e:	10 92 6f 00 	sts	0x006F, r1	; 0x80006f <__TEXT_REGION_LENGTH__+0x7e006f>
     2a2:	10 92 70 00 	sts	0x0070, r1	; 0x800070 <__TEXT_REGION_LENGTH__+0x7e0070>
     2a6:	80 93 71 00 	sts	0x0071, r24	; 0x800071 <__TEXT_REGION_LENGTH__+0x7e0071>
     2aa:	a1 2c       	mov	r10, r1
     2ac:	c1 2c       	mov	r12, r1
     2ae:	e1 2c       	mov	r14, r1
     2b0:	00 e0       	ldi	r16, 0x00	; 0
     2b2:	27 e0       	ldi	r18, 0x07	; 7
     2b4:	41 e0       	ldi	r20, 0x01	; 1
     2b6:	69 e0       	ldi	r22, 0x09	; 9
     2b8:	81 e0       	ldi	r24, 0x01	; 1
     2ba:	2b df       	rcall	.-426    	; 0x112 <ADC_Initialize>
     2bc:	60 e0       	ldi	r22, 0x00	; 0
     2be:	70 e0       	ldi	r23, 0x00	; 0
     2c0:	88 ea       	ldi	r24, 0xA8	; 168
     2c2:	91 e4       	ldi	r25, 0x41	; 65
     2c4:	0e 94 b4 0e 	call	0x1d68	; 0x1d68 <lrint>
     2c8:	61 50       	subi	r22, 0x01	; 1
     2ca:	71 09       	sbc	r23, r1
     2cc:	70 93 cd 00 	sts	0x00CD, r23	; 0x8000cd <__TEXT_REGION_LENGTH__+0x7e00cd>
     2d0:	60 93 cc 00 	sts	0x00CC, r22	; 0x8000cc <__TEXT_REGION_LENGTH__+0x7e00cc>
     2d4:	e9 ec       	ldi	r30, 0xC9	; 201
     2d6:	f0 e0       	ldi	r31, 0x00	; 0
     2d8:	88 e1       	ldi	r24, 0x18	; 24
     2da:	80 83       	st	Z, r24
     2dc:	aa ec       	ldi	r26, 0xCA	; 202
     2de:	b0 e0       	ldi	r27, 0x00	; 0
     2e0:	8c 91       	ld	r24, X
     2e2:	86 60       	ori	r24, 0x06	; 6
     2e4:	8c 93       	st	X, r24
     2e6:	80 81       	ld	r24, Z
     2e8:	80 68       	ori	r24, 0x80	; 128
     2ea:	80 83       	st	Z, r24
     2ec:	0f 91       	pop	r16
     2ee:	ef 90       	pop	r14
     2f0:	cf 90       	pop	r12
     2f2:	af 90       	pop	r10
     2f4:	08 95       	ret

000002f6 <__vector_32>:
     2f6:	1f 92       	push	r1
     2f8:	0f 92       	push	r0
     2fa:	0f b6       	in	r0, 0x3f	; 63
     2fc:	0f 92       	push	r0
     2fe:	11 24       	eor	r1, r1
     300:	8f 93       	push	r24
     302:	9f 93       	push	r25
     304:	af 93       	push	r26
     306:	bf 93       	push	r27
     308:	80 91 62 01 	lds	r24, 0x0162	; 0x800162 <n_x>
     30c:	8f 5f       	subi	r24, 0xFF	; 255
     30e:	80 93 62 01 	sts	0x0162, r24	; 0x800162 <n_x>
     312:	80 91 80 01 	lds	r24, 0x0180	; 0x800180 <n_o>
     316:	8f 5f       	subi	r24, 0xFF	; 255
     318:	80 93 80 01 	sts	0x0180, r24	; 0x800180 <n_o>
     31c:	80 91 51 01 	lds	r24, 0x0151	; 0x800151 <overflowCount>
     320:	90 91 52 01 	lds	r25, 0x0152	; 0x800152 <overflowCount+0x1>
     324:	a0 91 53 01 	lds	r26, 0x0153	; 0x800153 <overflowCount+0x2>
     328:	b0 91 54 01 	lds	r27, 0x0154	; 0x800154 <overflowCount+0x3>
     32c:	01 96       	adiw	r24, 0x01	; 1
     32e:	a1 1d       	adc	r26, r1
     330:	b1 1d       	adc	r27, r1
     332:	80 93 51 01 	sts	0x0151, r24	; 0x800151 <overflowCount>
     336:	90 93 52 01 	sts	0x0152, r25	; 0x800152 <overflowCount+0x1>
     33a:	a0 93 53 01 	sts	0x0153, r26	; 0x800153 <overflowCount+0x2>
     33e:	b0 93 54 01 	sts	0x0154, r27	; 0x800154 <overflowCount+0x3>
     342:	bf 91       	pop	r27
     344:	af 91       	pop	r26
     346:	9f 91       	pop	r25
     348:	8f 91       	pop	r24
     34a:	0f 90       	pop	r0
     34c:	0f be       	out	0x3f, r0	; 63
     34e:	0f 90       	pop	r0
     350:	1f 90       	pop	r1
     352:	18 95       	reti

00000354 <applyPulse>:
     354:	cf 93       	push	r28
     356:	df 93       	push	r29
     358:	e5 ea       	ldi	r30, 0xA5	; 165
     35a:	f1 e0       	ldi	r31, 0x01	; 1
     35c:	a1 eb       	ldi	r26, 0xB1	; 177
     35e:	b1 e0       	ldi	r27, 0x01	; 1
     360:	c3 ec       	ldi	r28, 0xC3	; 195
     362:	d1 e0       	ldi	r29, 0x01	; 1
     364:	4f ef       	ldi	r20, 0xFF	; 255
     366:	50 e0       	ldi	r21, 0x00	; 0
     368:	13 c0       	rjmp	.+38     	; 0x390 <applyPulse+0x3c>
     36a:	80 35       	cpi	r24, 0x50	; 80
     36c:	91 05       	cpc	r25, r1
     36e:	0c f0       	brlt	.+2      	; 0x372 <applyPulse+0x1e>
     370:	4f c0       	rjmp	.+158    	; 0x410 <__LOCK_REGION_LENGTH__+0x10>
     372:	28 81       	ld	r18, Y
     374:	39 81       	ldd	r19, Y+1	; 0x01
     376:	82 17       	cp	r24, r18
     378:	93 07       	cpc	r25, r19
     37a:	09 f4       	brne	.+2      	; 0x37e <applyPulse+0x2a>
     37c:	49 c0       	rjmp	.+146    	; 0x410 <__LOCK_REGION_LENGTH__+0x10>
     37e:	11 96       	adiw	r26, 0x01	; 1
     380:	5c 93       	st	X, r21
     382:	4e 93       	st	-X, r20
     384:	12 96       	adiw	r26, 0x02	; 2
     386:	22 96       	adiw	r28, 0x02	; 2
     388:	81 e0       	ldi	r24, 0x01	; 1
     38a:	e1 3b       	cpi	r30, 0xB1	; 177
     38c:	f8 07       	cpc	r31, r24
     38e:	69 f0       	breq	.+26     	; 0x3aa <applyPulse+0x56>
     390:	81 91       	ld	r24, Z+
     392:	91 91       	ld	r25, Z+
     394:	00 97       	sbiw	r24, 0x00	; 0
     396:	49 f7       	brne	.-46     	; 0x36a <applyPulse+0x16>
     398:	11 96       	adiw	r26, 0x01	; 1
     39a:	1c 92       	st	X, r1
     39c:	1e 92       	st	-X, r1
     39e:	12 96       	adiw	r26, 0x02	; 2
     3a0:	22 96       	adiw	r28, 0x02	; 2
     3a2:	81 e0       	ldi	r24, 0x01	; 1
     3a4:	e1 3b       	cpi	r30, 0xB1	; 177
     3a6:	f8 07       	cpc	r31, r24
     3a8:	99 f7       	brne	.-26     	; 0x390 <applyPulse+0x3c>
     3aa:	80 91 a5 01 	lds	r24, 0x01A5	; 0x8001a5 <thisVoltage>
     3ae:	90 91 a6 01 	lds	r25, 0x01A6	; 0x8001a6 <thisVoltage+0x1>
     3b2:	90 93 c4 01 	sts	0x01C4, r25	; 0x8001c4 <lastVoltage+0x1>
     3b6:	80 93 c3 01 	sts	0x01C3, r24	; 0x8001c3 <lastVoltage>
     3ba:	80 91 a7 01 	lds	r24, 0x01A7	; 0x8001a7 <thisVoltage+0x2>
     3be:	90 91 a8 01 	lds	r25, 0x01A8	; 0x8001a8 <thisVoltage+0x3>
     3c2:	90 93 c6 01 	sts	0x01C6, r25	; 0x8001c6 <lastVoltage+0x3>
     3c6:	80 93 c5 01 	sts	0x01C5, r24	; 0x8001c5 <lastVoltage+0x2>
     3ca:	80 91 a9 01 	lds	r24, 0x01A9	; 0x8001a9 <thisVoltage+0x4>
     3ce:	90 91 aa 01 	lds	r25, 0x01AA	; 0x8001aa <thisVoltage+0x5>
     3d2:	90 93 c8 01 	sts	0x01C8, r25	; 0x8001c8 <lastVoltage+0x5>
     3d6:	80 93 c7 01 	sts	0x01C7, r24	; 0x8001c7 <lastVoltage+0x4>
     3da:	80 91 ab 01 	lds	r24, 0x01AB	; 0x8001ab <thisVoltage+0x6>
     3de:	90 91 ac 01 	lds	r25, 0x01AC	; 0x8001ac <thisVoltage+0x7>
     3e2:	90 93 ca 01 	sts	0x01CA, r25	; 0x8001ca <lastVoltage+0x7>
     3e6:	80 93 c9 01 	sts	0x01C9, r24	; 0x8001c9 <lastVoltage+0x6>
     3ea:	80 91 ad 01 	lds	r24, 0x01AD	; 0x8001ad <thisVoltage+0x8>
     3ee:	90 91 ae 01 	lds	r25, 0x01AE	; 0x8001ae <thisVoltage+0x9>
     3f2:	90 93 cc 01 	sts	0x01CC, r25	; 0x8001cc <lastVoltage+0x9>
     3f6:	80 93 cb 01 	sts	0x01CB, r24	; 0x8001cb <lastVoltage+0x8>
     3fa:	80 91 af 01 	lds	r24, 0x01AF	; 0x8001af <thisVoltage+0xa>
     3fe:	90 91 b0 01 	lds	r25, 0x01B0	; 0x8001b0 <thisVoltage+0xb>
     402:	90 93 ce 01 	sts	0x01CE, r25	; 0x8001ce <lastVoltage+0xb>
     406:	80 93 cd 01 	sts	0x01CD, r24	; 0x8001cd <lastVoltage+0xa>
     40a:	df 91       	pop	r29
     40c:	cf 91       	pop	r28
     40e:	08 95       	ret
     410:	11 96       	adiw	r26, 0x01	; 1
     412:	9c 93       	st	X, r25
     414:	8e 93       	st	-X, r24
     416:	b6 cf       	rjmp	.-148    	; 0x384 <applyPulse+0x30>

00000418 <calculateJacobian>:
     418:	2f 92       	push	r2
     41a:	3f 92       	push	r3
     41c:	4f 92       	push	r4
     41e:	5f 92       	push	r5
     420:	6f 92       	push	r6
     422:	7f 92       	push	r7
     424:	8f 92       	push	r8
     426:	9f 92       	push	r9
     428:	af 92       	push	r10
     42a:	bf 92       	push	r11
     42c:	cf 92       	push	r12
     42e:	df 92       	push	r13
     430:	ef 92       	push	r14
     432:	ff 92       	push	r15
     434:	0f 93       	push	r16
     436:	1f 93       	push	r17
     438:	cf 93       	push	r28
     43a:	df 93       	push	r29
     43c:	cd b7       	in	r28, 0x3d	; 61
     43e:	de b7       	in	r29, 0x3e	; 62
     440:	c2 55       	subi	r28, 0x52	; 82
     442:	d1 09       	sbc	r29, r1
     444:	0f b6       	in	r0, 0x3f	; 63
     446:	f8 94       	cli
     448:	de bf       	out	0x3e, r29	; 62
     44a:	0f be       	out	0x3f, r0	; 63
     44c:	cd bf       	out	0x3d, r28	; 61
     44e:	2d 96       	adiw	r28, 0x0d	; 13
     450:	1f af       	std	Y+63, r17	; 0x3f
     452:	0e af       	std	Y+62, r16	; 0x3e
     454:	2d 97       	sbiw	r28, 0x0d	; 13
     456:	8c e0       	ldi	r24, 0x0C	; 12
     458:	ef e1       	ldi	r30, 0x1F	; 31
     45a:	f1 e0       	ldi	r31, 0x01	; 1
     45c:	de 01       	movw	r26, r28
     45e:	dd 96       	adiw	r26, 0x3d	; 61
     460:	01 90       	ld	r0, Z+
     462:	0d 92       	st	X+, r0
     464:	8a 95       	dec	r24
     466:	e1 f7       	brne	.-8      	; 0x460 <calculateJacobian+0x48>
     468:	80 e1       	ldi	r24, 0x10	; 16
     46a:	98 ed       	ldi	r25, 0xD8	; 216
     46c:	a0 e3       	ldi	r26, 0x30	; 48
     46e:	b2 e4       	ldi	r27, 0x42	; 66
     470:	8d a3       	std	Y+37, r24	; 0x25
     472:	9e a3       	std	Y+38, r25	; 0x26
     474:	af a3       	std	Y+39, r26	; 0x27
     476:	b8 a7       	std	Y+40, r27	; 0x28
     478:	86 e8       	ldi	r24, 0x86	; 134
     47a:	96 eb       	ldi	r25, 0xB6	; 182
     47c:	a3 e8       	ldi	r26, 0x83	; 131
     47e:	b2 ec       	ldi	r27, 0xC2	; 194
     480:	89 a7       	std	Y+41, r24	; 0x29
     482:	9a a7       	std	Y+42, r25	; 0x2a
     484:	ab a7       	std	Y+43, r26	; 0x2b
     486:	bc a7       	std	Y+44, r27	; 0x2c
     488:	4a ea       	ldi	r20, 0xAA	; 170
     48a:	51 e7       	ldi	r21, 0x71	; 113
     48c:	6e e7       	ldi	r22, 0x7E	; 126
     48e:	72 ec       	ldi	r23, 0xC2	; 194
     490:	4d a7       	std	Y+45, r20	; 0x2d
     492:	5e a7       	std	Y+46, r21	; 0x2e
     494:	6f a7       	std	Y+47, r22	; 0x2f
     496:	78 ab       	std	Y+48, r23	; 0x30
     498:	89 ab       	std	Y+49, r24	; 0x31
     49a:	9a ab       	std	Y+50, r25	; 0x32
     49c:	ab ab       	std	Y+51, r26	; 0x33
     49e:	bc ab       	std	Y+52, r27	; 0x34
     4a0:	83 e3       	ldi	r24, 0x33	; 51
     4a2:	93 e3       	ldi	r25, 0x33	; 51
     4a4:	ab e1       	ldi	r26, 0x1B	; 27
     4a6:	b1 ec       	ldi	r27, 0xC1	; 193
     4a8:	8d ab       	std	Y+53, r24	; 0x35
     4aa:	9e ab       	std	Y+54, r25	; 0x36
     4ac:	af ab       	std	Y+55, r26	; 0x37
     4ae:	b8 af       	std	Y+56, r27	; 0x38
     4b0:	81 ee       	ldi	r24, 0xE1	; 225
     4b2:	9a e3       	ldi	r25, 0x3A	; 58
     4b4:	af e1       	ldi	r26, 0x1F	; 31
     4b6:	b3 ec       	ldi	r27, 0xC3	; 195
     4b8:	89 af       	std	Y+57, r24	; 0x39
     4ba:	9a af       	std	Y+58, r25	; 0x3a
     4bc:	ab af       	std	Y+59, r26	; 0x3b
     4be:	bc af       	std	Y+60, r27	; 0x3c
     4c0:	ce 01       	movw	r24, r28
     4c2:	cd 96       	adiw	r24, 0x3d	; 61
     4c4:	2f 96       	adiw	r28, 0x0f	; 15
     4c6:	9f af       	std	Y+63, r25	; 0x3f
     4c8:	8e af       	std	Y+62, r24	; 0x3e
     4ca:	2f 97       	sbiw	r28, 0x0f	; 15
     4cc:	8e 01       	movw	r16, r28
     4ce:	0f 5f       	subi	r16, 0xFF	; 255
     4d0:	1f 4f       	sbci	r17, 0xFF	; 255
     4d2:	de 01       	movw	r26, r28
     4d4:	95 96       	adiw	r26, 0x25	; 37
     4d6:	2b 96       	adiw	r28, 0x0b	; 11
     4d8:	bf af       	std	Y+63, r27	; 0x3f
     4da:	ae af       	std	Y+62, r26	; 0x3e
     4dc:	2b 97       	sbiw	r28, 0x0b	; 11
     4de:	86 e8       	ldi	r24, 0x86	; 134
     4e0:	96 eb       	ldi	r25, 0xB6	; 182
     4e2:	a3 e8       	ldi	r26, 0x83	; 131
     4e4:	b2 ec       	ldi	r27, 0xC2	; 194
     4e6:	63 96       	adiw	r28, 0x13	; 19
     4e8:	8c af       	std	Y+60, r24	; 0x3c
     4ea:	9d af       	std	Y+61, r25	; 0x3d
     4ec:	ae af       	std	Y+62, r26	; 0x3e
     4ee:	bf af       	std	Y+63, r27	; 0x3f
     4f0:	63 97       	sbiw	r28, 0x13	; 19
     4f2:	80 e1       	ldi	r24, 0x10	; 16
     4f4:	48 2e       	mov	r4, r24
     4f6:	88 ed       	ldi	r24, 0xD8	; 216
     4f8:	58 2e       	mov	r5, r24
     4fa:	80 e3       	ldi	r24, 0x30	; 48
     4fc:	68 2e       	mov	r6, r24
     4fe:	82 e4       	ldi	r24, 0x42	; 66
     500:	78 2e       	mov	r7, r24
     502:	21 2c       	mov	r2, r1
     504:	31 2c       	mov	r3, r1
     506:	2f 96       	adiw	r28, 0x0f	; 15
     508:	ae ad       	ldd	r26, Y+62	; 0x3e
     50a:	bf ad       	ldd	r27, Y+63	; 0x3f
     50c:	2f 97       	sbiw	r28, 0x0f	; 15
     50e:	8d 90       	ld	r8, X+
     510:	9d 90       	ld	r9, X+
     512:	ad 90       	ld	r10, X+
     514:	bd 90       	ld	r11, X+
     516:	2f 96       	adiw	r28, 0x0f	; 15
     518:	bf af       	std	Y+63, r27	; 0x3f
     51a:	ae af       	std	Y+62, r26	; 0x3e
     51c:	2f 97       	sbiw	r28, 0x0f	; 15
     51e:	c5 01       	movw	r24, r10
     520:	b4 01       	movw	r22, r8
     522:	0e 94 71 0f 	call	0x1ee2	; 0x1ee2 <sin>
     526:	6b 01       	movw	r12, r22
     528:	7c 01       	movw	r14, r24
     52a:	c5 01       	movw	r24, r10
     52c:	b4 01       	movw	r22, r8
     52e:	0e 94 e9 0c 	call	0x19d2	; 0x19d2 <cos>
     532:	4b 01       	movw	r8, r22
     534:	5c 01       	movw	r10, r24
     536:	a3 01       	movw	r20, r6
     538:	92 01       	movw	r18, r4
     53a:	c7 01       	movw	r24, r14
     53c:	b6 01       	movw	r22, r12
     53e:	0e 94 ee 0e 	call	0x1ddc	; 0x1ddc <__mulsf3>
     542:	2b 01       	movw	r4, r22
     544:	3c 01       	movw	r6, r24
     546:	63 96       	adiw	r28, 0x13	; 19
     548:	2c ad       	ldd	r18, Y+60	; 0x3c
     54a:	3d ad       	ldd	r19, Y+61	; 0x3d
     54c:	4e ad       	ldd	r20, Y+62	; 0x3e
     54e:	5f ad       	ldd	r21, Y+63	; 0x3f
     550:	63 97       	sbiw	r28, 0x13	; 19
     552:	c5 01       	movw	r24, r10
     554:	b4 01       	movw	r22, r8
     556:	0e 94 ee 0e 	call	0x1ddc	; 0x1ddc <__mulsf3>
     55a:	9b 01       	movw	r18, r22
     55c:	ac 01       	movw	r20, r24
     55e:	c3 01       	movw	r24, r6
     560:	b2 01       	movw	r22, r4
     562:	0e 94 84 0c 	call	0x1908	; 0x1908 <__subsf3>
     566:	20 e0       	ldi	r18, 0x00	; 0
     568:	30 e0       	ldi	r19, 0x00	; 0
     56a:	48 e9       	ldi	r20, 0x98	; 152
     56c:	51 e4       	ldi	r21, 0x41	; 65
     56e:	0e 94 ec 0c 	call	0x19d8	; 0x19d8 <__divsf3>
     572:	f8 01       	movw	r30, r16
     574:	60 83       	st	Z, r22
     576:	71 83       	std	Z+1, r23	; 0x01
     578:	82 83       	std	Z+2, r24	; 0x02
     57a:	93 83       	std	Z+3, r25	; 0x03
     57c:	20 e0       	ldi	r18, 0x00	; 0
     57e:	30 e0       	ldi	r19, 0x00	; 0
     580:	48 e9       	ldi	r20, 0x98	; 152
     582:	51 e4       	ldi	r21, 0x41	; 65
     584:	c5 01       	movw	r24, r10
     586:	b4 01       	movw	r22, r8
     588:	0e 94 ec 0c 	call	0x19d8	; 0x19d8 <__divsf3>
     58c:	d8 01       	movw	r26, r16
     58e:	14 96       	adiw	r26, 0x04	; 4
     590:	6d 93       	st	X+, r22
     592:	7d 93       	st	X+, r23
     594:	8d 93       	st	X+, r24
     596:	9c 93       	st	X, r25
     598:	17 97       	sbiw	r26, 0x07	; 7
     59a:	20 e0       	ldi	r18, 0x00	; 0
     59c:	30 e0       	ldi	r19, 0x00	; 0
     59e:	48 e9       	ldi	r20, 0x98	; 152
     5a0:	51 e4       	ldi	r21, 0x41	; 65
     5a2:	c7 01       	movw	r24, r14
     5a4:	b6 01       	movw	r22, r12
     5a6:	0e 94 ec 0c 	call	0x19d8	; 0x19d8 <__divsf3>
     5aa:	f8 01       	movw	r30, r16
     5ac:	60 87       	std	Z+8, r22	; 0x08
     5ae:	71 87       	std	Z+9, r23	; 0x09
     5b0:	82 87       	std	Z+10, r24	; 0x0a
     5b2:	93 87       	std	Z+11, r25	; 0x0b
     5b4:	ff ef       	ldi	r31, 0xFF	; 255
     5b6:	2f 1a       	sub	r2, r31
     5b8:	3f 0a       	sbc	r3, r31
     5ba:	04 5f       	subi	r16, 0xF4	; 244
     5bc:	1f 4f       	sbci	r17, 0xFF	; 255
     5be:	2b 96       	adiw	r28, 0x0b	; 11
     5c0:	8e ad       	ldd	r24, Y+62	; 0x3e
     5c2:	9f ad       	ldd	r25, Y+63	; 0x3f
     5c4:	2b 97       	sbiw	r28, 0x0b	; 11
     5c6:	08 96       	adiw	r24, 0x08	; 8
     5c8:	2b 96       	adiw	r28, 0x0b	; 11
     5ca:	9f af       	std	Y+63, r25	; 0x3f
     5cc:	8e af       	std	Y+62, r24	; 0x3e
     5ce:	2b 97       	sbiw	r28, 0x0b	; 11
     5d0:	93 e0       	ldi	r25, 0x03	; 3
     5d2:	29 16       	cp	r2, r25
     5d4:	31 04       	cpc	r3, r1
     5d6:	b1 f0       	breq	.+44     	; 0x604 <calculateJacobian+0x1ec>
     5d8:	2b 96       	adiw	r28, 0x0b	; 11
     5da:	ae ad       	ldd	r26, Y+62	; 0x3e
     5dc:	bf ad       	ldd	r27, Y+63	; 0x3f
     5de:	2b 97       	sbiw	r28, 0x0b	; 11
     5e0:	4d 90       	ld	r4, X+
     5e2:	5d 90       	ld	r5, X+
     5e4:	6d 90       	ld	r6, X+
     5e6:	7c 90       	ld	r7, X
     5e8:	13 97       	sbiw	r26, 0x03	; 3
     5ea:	14 96       	adiw	r26, 0x04	; 4
     5ec:	8d 91       	ld	r24, X+
     5ee:	9d 91       	ld	r25, X+
     5f0:	0d 90       	ld	r0, X+
     5f2:	bc 91       	ld	r27, X
     5f4:	a0 2d       	mov	r26, r0
     5f6:	63 96       	adiw	r28, 0x13	; 19
     5f8:	8c af       	std	Y+60, r24	; 0x3c
     5fa:	9d af       	std	Y+61, r25	; 0x3d
     5fc:	ae af       	std	Y+62, r26	; 0x3e
     5fe:	bf af       	std	Y+63, r27	; 0x3f
     600:	63 97       	sbiw	r28, 0x13	; 19
     602:	81 cf       	rjmp	.-254    	; 0x506 <calculateJacobian+0xee>
     604:	8d 85       	ldd	r24, Y+13	; 0x0d
     606:	9e 85       	ldd	r25, Y+14	; 0x0e
     608:	af 85       	ldd	r26, Y+15	; 0x0f
     60a:	b8 89       	ldd	r27, Y+16	; 0x10
     60c:	2d 96       	adiw	r28, 0x0d	; 13
     60e:	ee ad       	ldd	r30, Y+62	; 0x3e
     610:	ff ad       	ldd	r31, Y+63	; 0x3f
     612:	2d 97       	sbiw	r28, 0x0d	; 13
     614:	80 83       	st	Z, r24
     616:	91 83       	std	Z+1, r25	; 0x01
     618:	a2 83       	std	Z+2, r26	; 0x02
     61a:	b3 83       	std	Z+3, r27	; 0x03
     61c:	89 89       	ldd	r24, Y+17	; 0x11
     61e:	9a 89       	ldd	r25, Y+18	; 0x12
     620:	ab 89       	ldd	r26, Y+19	; 0x13
     622:	bc 89       	ldd	r27, Y+20	; 0x14
     624:	84 83       	std	Z+4, r24	; 0x04
     626:	95 83       	std	Z+5, r25	; 0x05
     628:	a6 83       	std	Z+6, r26	; 0x06
     62a:	b7 83       	std	Z+7, r27	; 0x07
     62c:	8d 89       	ldd	r24, Y+21	; 0x15
     62e:	9e 89       	ldd	r25, Y+22	; 0x16
     630:	af 89       	ldd	r26, Y+23	; 0x17
     632:	b8 8d       	ldd	r27, Y+24	; 0x18
     634:	80 87       	std	Z+8, r24	; 0x08
     636:	91 87       	std	Z+9, r25	; 0x09
     638:	a2 87       	std	Z+10, r26	; 0x0a
     63a:	b3 87       	std	Z+11, r27	; 0x0b
     63c:	89 8d       	ldd	r24, Y+25	; 0x19
     63e:	9a 8d       	ldd	r25, Y+26	; 0x1a
     640:	ab 8d       	ldd	r26, Y+27	; 0x1b
     642:	bc 8d       	ldd	r27, Y+28	; 0x1c
     644:	84 87       	std	Z+12, r24	; 0x0c
     646:	95 87       	std	Z+13, r25	; 0x0d
     648:	a6 87       	std	Z+14, r26	; 0x0e
     64a:	b7 87       	std	Z+15, r27	; 0x0f
     64c:	8d 8d       	ldd	r24, Y+29	; 0x1d
     64e:	9e 8d       	ldd	r25, Y+30	; 0x1e
     650:	af 8d       	ldd	r26, Y+31	; 0x1f
     652:	b8 a1       	ldd	r27, Y+32	; 0x20
     654:	80 8b       	std	Z+16, r24	; 0x10
     656:	91 8b       	std	Z+17, r25	; 0x11
     658:	a2 8b       	std	Z+18, r26	; 0x12
     65a:	b3 8b       	std	Z+19, r27	; 0x13
     65c:	89 a1       	ldd	r24, Y+33	; 0x21
     65e:	9a a1       	ldd	r25, Y+34	; 0x22
     660:	ab a1       	ldd	r26, Y+35	; 0x23
     662:	bc a1       	ldd	r27, Y+36	; 0x24
     664:	84 8b       	std	Z+20, r24	; 0x14
     666:	95 8b       	std	Z+21, r25	; 0x15
     668:	a6 8b       	std	Z+22, r26	; 0x16
     66a:	b7 8b       	std	Z+23, r27	; 0x17
     66c:	89 81       	ldd	r24, Y+1	; 0x01
     66e:	9a 81       	ldd	r25, Y+2	; 0x02
     670:	ab 81       	ldd	r26, Y+3	; 0x03
     672:	bc 81       	ldd	r27, Y+4	; 0x04
     674:	80 8f       	std	Z+24, r24	; 0x18
     676:	91 8f       	std	Z+25, r25	; 0x19
     678:	a2 8f       	std	Z+26, r26	; 0x1a
     67a:	b3 8f       	std	Z+27, r27	; 0x1b
     67c:	8d 81       	ldd	r24, Y+5	; 0x05
     67e:	9e 81       	ldd	r25, Y+6	; 0x06
     680:	af 81       	ldd	r26, Y+7	; 0x07
     682:	b8 85       	ldd	r27, Y+8	; 0x08
     684:	84 8f       	std	Z+28, r24	; 0x1c
     686:	95 8f       	std	Z+29, r25	; 0x1d
     688:	a6 8f       	std	Z+30, r26	; 0x1e
     68a:	b7 8f       	std	Z+31, r27	; 0x1f
     68c:	89 85       	ldd	r24, Y+9	; 0x09
     68e:	9a 85       	ldd	r25, Y+10	; 0x0a
     690:	ab 85       	ldd	r26, Y+11	; 0x0b
     692:	bc 85       	ldd	r27, Y+12	; 0x0c
     694:	80 a3       	std	Z+32, r24	; 0x20
     696:	91 a3       	std	Z+33, r25	; 0x21
     698:	a2 a3       	std	Z+34, r26	; 0x22
     69a:	b3 a3       	std	Z+35, r27	; 0x23
     69c:	ce 5a       	subi	r28, 0xAE	; 174
     69e:	df 4f       	sbci	r29, 0xFF	; 255
     6a0:	0f b6       	in	r0, 0x3f	; 63
     6a2:	f8 94       	cli
     6a4:	de bf       	out	0x3e, r29	; 62
     6a6:	0f be       	out	0x3f, r0	; 63
     6a8:	cd bf       	out	0x3d, r28	; 61
     6aa:	df 91       	pop	r29
     6ac:	cf 91       	pop	r28
     6ae:	1f 91       	pop	r17
     6b0:	0f 91       	pop	r16
     6b2:	ff 90       	pop	r15
     6b4:	ef 90       	pop	r14
     6b6:	df 90       	pop	r13
     6b8:	cf 90       	pop	r12
     6ba:	bf 90       	pop	r11
     6bc:	af 90       	pop	r10
     6be:	9f 90       	pop	r9
     6c0:	8f 90       	pop	r8
     6c2:	7f 90       	pop	r7
     6c4:	6f 90       	pop	r6
     6c6:	5f 90       	pop	r5
     6c8:	4f 90       	pop	r4
     6ca:	3f 90       	pop	r3
     6cc:	2f 90       	pop	r2
     6ce:	08 95       	ret

000006d0 <rotateVector>:
     6d0:	2f 92       	push	r2
     6d2:	3f 92       	push	r3
     6d4:	4f 92       	push	r4
     6d6:	5f 92       	push	r5
     6d8:	7f 92       	push	r7
     6da:	8f 92       	push	r8
     6dc:	9f 92       	push	r9
     6de:	af 92       	push	r10
     6e0:	bf 92       	push	r11
     6e2:	cf 92       	push	r12
     6e4:	df 92       	push	r13
     6e6:	ef 92       	push	r14
     6e8:	ff 92       	push	r15
     6ea:	0f 93       	push	r16
     6ec:	1f 93       	push	r17
     6ee:	cf 93       	push	r28
     6f0:	df 93       	push	r29
     6f2:	cd b7       	in	r28, 0x3d	; 61
     6f4:	de b7       	in	r29, 0x3e	; 62
     6f6:	68 97       	sbiw	r28, 0x18	; 24
     6f8:	0f b6       	in	r0, 0x3f	; 63
     6fa:	f8 94       	cli
     6fc:	de bf       	out	0x3e, r29	; 62
     6fe:	0f be       	out	0x3f, r0	; 63
     700:	cd bf       	out	0x3d, r28	; 61
     702:	29 87       	std	Y+9, r18	; 0x09
     704:	3a 87       	std	Y+10, r19	; 0x0a
     706:	4b 87       	std	Y+11, r20	; 0x0b
     708:	5c 87       	std	Y+12, r21	; 0x0c
     70a:	6d 87       	std	Y+13, r22	; 0x0d
     70c:	7e 87       	std	Y+14, r23	; 0x0e
     70e:	8f 87       	std	Y+15, r24	; 0x0f
     710:	98 8b       	std	Y+16, r25	; 0x10
     712:	47 01       	movw	r8, r14
     714:	58 01       	movw	r10, r16
     716:	89 85       	ldd	r24, Y+9	; 0x09
     718:	9a 85       	ldd	r25, Y+10	; 0x0a
     71a:	ab 85       	ldd	r26, Y+11	; 0x0b
     71c:	bc 85       	ldd	r27, Y+12	; 0x0c
     71e:	89 8b       	std	Y+17, r24	; 0x11
     720:	9a 8b       	std	Y+18, r25	; 0x12
     722:	ab 8b       	std	Y+19, r26	; 0x13
     724:	bc 8b       	std	Y+20, r27	; 0x14
     726:	2d 84       	ldd	r2, Y+13	; 0x0d
     728:	3e 84       	ldd	r3, Y+14	; 0x0e
     72a:	4f 84       	ldd	r4, Y+15	; 0x0f
     72c:	58 88       	ldd	r5, Y+16	; 0x10
     72e:	c8 01       	movw	r24, r16
     730:	b7 01       	movw	r22, r14
     732:	0e 94 e9 0c 	call	0x19d2	; 0x19d2 <cos>
     736:	6b 01       	movw	r12, r22
     738:	7c 01       	movw	r14, r24
     73a:	c5 01       	movw	r24, r10
     73c:	b4 01       	movw	r22, r8
     73e:	0e 94 71 0f 	call	0x1ee2	; 0x1ee2 <sin>
     742:	4b 01       	movw	r8, r22
     744:	5c 01       	movw	r10, r24
     746:	29 89       	ldd	r18, Y+17	; 0x11
     748:	3a 89       	ldd	r19, Y+18	; 0x12
     74a:	4b 89       	ldd	r20, Y+19	; 0x13
     74c:	5c 89       	ldd	r21, Y+20	; 0x14
     74e:	c7 01       	movw	r24, r14
     750:	b6 01       	movw	r22, r12
     752:	0e 94 ee 0e 	call	0x1ddc	; 0x1ddc <__mulsf3>
     756:	6d 8b       	std	Y+21, r22	; 0x15
     758:	7e 8b       	std	Y+22, r23	; 0x16
     75a:	8f 8b       	std	Y+23, r24	; 0x17
     75c:	98 8f       	std	Y+24, r25	; 0x18
     75e:	a2 01       	movw	r20, r4
     760:	91 01       	movw	r18, r2
     762:	c5 01       	movw	r24, r10
     764:	b4 01       	movw	r22, r8
     766:	0e 94 ee 0e 	call	0x1ddc	; 0x1ddc <__mulsf3>
     76a:	9b 01       	movw	r18, r22
     76c:	ac 01       	movw	r20, r24
     76e:	6d 89       	ldd	r22, Y+21	; 0x15
     770:	7e 89       	ldd	r23, Y+22	; 0x16
     772:	8f 89       	ldd	r24, Y+23	; 0x17
     774:	98 8d       	ldd	r25, Y+24	; 0x18
     776:	0e 94 84 0c 	call	0x1908	; 0x1908 <__subsf3>
     77a:	76 2e       	mov	r7, r22
     77c:	ab 01       	movw	r20, r22
     77e:	bc 01       	movw	r22, r24
     780:	49 83       	std	Y+1, r20	; 0x01
     782:	5a 83       	std	Y+2, r21	; 0x02
     784:	6b 83       	std	Y+3, r22	; 0x03
     786:	7c 83       	std	Y+4, r23	; 0x04
     788:	29 89       	ldd	r18, Y+17	; 0x11
     78a:	3a 89       	ldd	r19, Y+18	; 0x12
     78c:	4b 89       	ldd	r20, Y+19	; 0x13
     78e:	5c 89       	ldd	r21, Y+20	; 0x14
     790:	c5 01       	movw	r24, r10
     792:	b4 01       	movw	r22, r8
     794:	0e 94 ee 0e 	call	0x1ddc	; 0x1ddc <__mulsf3>
     798:	4b 01       	movw	r8, r22
     79a:	5c 01       	movw	r10, r24
     79c:	a2 01       	movw	r20, r4
     79e:	91 01       	movw	r18, r2
     7a0:	c7 01       	movw	r24, r14
     7a2:	b6 01       	movw	r22, r12
     7a4:	0e 94 ee 0e 	call	0x1ddc	; 0x1ddc <__mulsf3>
     7a8:	9b 01       	movw	r18, r22
     7aa:	ac 01       	movw	r20, r24
     7ac:	c5 01       	movw	r24, r10
     7ae:	b4 01       	movw	r22, r8
     7b0:	0e 94 85 0c 	call	0x190a	; 0x190a <__addsf3>
     7b4:	e6 2f       	mov	r30, r22
     7b6:	46 2f       	mov	r20, r22
     7b8:	57 2f       	mov	r21, r23
     7ba:	bc 01       	movw	r22, r24
     7bc:	4d 83       	std	Y+5, r20	; 0x05
     7be:	5e 83       	std	Y+6, r21	; 0x06
     7c0:	6f 83       	std	Y+7, r22	; 0x07
     7c2:	78 87       	std	Y+8, r23	; 0x08
     7c4:	27 2d       	mov	r18, r7
     7c6:	3a 81       	ldd	r19, Y+2	; 0x02
     7c8:	4b 81       	ldd	r20, Y+3	; 0x03
     7ca:	5c 81       	ldd	r21, Y+4	; 0x04
     7cc:	6e 2f       	mov	r22, r30
     7ce:	7e 81       	ldd	r23, Y+6	; 0x06
     7d0:	8f 81       	ldd	r24, Y+7	; 0x07
     7d2:	98 85       	ldd	r25, Y+8	; 0x08
     7d4:	68 96       	adiw	r28, 0x18	; 24
     7d6:	0f b6       	in	r0, 0x3f	; 63
     7d8:	f8 94       	cli
     7da:	de bf       	out	0x3e, r29	; 62
     7dc:	0f be       	out	0x3f, r0	; 63
     7de:	cd bf       	out	0x3d, r28	; 61
     7e0:	df 91       	pop	r29
     7e2:	cf 91       	pop	r28
     7e4:	1f 91       	pop	r17
     7e6:	0f 91       	pop	r16
     7e8:	ff 90       	pop	r15
     7ea:	ef 90       	pop	r14
     7ec:	df 90       	pop	r13
     7ee:	cf 90       	pop	r12
     7f0:	bf 90       	pop	r11
     7f2:	af 90       	pop	r10
     7f4:	9f 90       	pop	r9
     7f6:	8f 90       	pop	r8
     7f8:	7f 90       	pop	r7
     7fa:	5f 90       	pop	r5
     7fc:	4f 90       	pop	r4
     7fe:	3f 90       	pop	r3
     800:	2f 90       	pop	r2
     802:	08 95       	ret

00000804 <medianFilter>:
     804:	2f 92       	push	r2
     806:	3f 92       	push	r3
     808:	4f 92       	push	r4
     80a:	5f 92       	push	r5
     80c:	6f 92       	push	r6
     80e:	7f 92       	push	r7
     810:	8f 92       	push	r8
     812:	9f 92       	push	r9
     814:	af 92       	push	r10
     816:	bf 92       	push	r11
     818:	cf 92       	push	r12
     81a:	df 92       	push	r13
     81c:	ef 92       	push	r14
     81e:	ff 92       	push	r15
     820:	0f 93       	push	r16
     822:	1f 93       	push	r17
     824:	cf 93       	push	r28
     826:	df 93       	push	r29
     828:	4c 01       	movw	r8, r24
     82a:	1b 01       	movw	r2, r22
     82c:	5b 01       	movw	r10, r22
     82e:	81 e0       	ldi	r24, 0x01	; 1
     830:	a8 1a       	sub	r10, r24
     832:	b1 08       	sbc	r11, r1
     834:	1a 14       	cp	r1, r10
     836:	1b 04       	cpc	r1, r11
     838:	7c f5       	brge	.+94     	; 0x898 <medianFilter+0x94>
     83a:	8b 01       	movw	r16, r22
     83c:	01 50       	subi	r16, 0x01	; 1
     83e:	10 4c       	sbci	r17, 0xC0	; 192
     840:	00 0f       	add	r16, r16
     842:	11 1f       	adc	r17, r17
     844:	00 0f       	add	r16, r16
     846:	11 1f       	adc	r17, r17
     848:	08 0d       	add	r16, r8
     84a:	19 1d       	adc	r17, r9
     84c:	e4 01       	movw	r28, r8
     84e:	c9 90       	ld	r12, Y+
     850:	d9 90       	ld	r13, Y+
     852:	e9 90       	ld	r14, Y+
     854:	f9 90       	ld	r15, Y+
     856:	48 80       	ld	r4, Y
     858:	59 80       	ldd	r5, Y+1	; 0x01
     85a:	6a 80       	ldd	r6, Y+2	; 0x02
     85c:	7b 80       	ldd	r7, Y+3	; 0x03
     85e:	a3 01       	movw	r20, r6
     860:	92 01       	movw	r18, r4
     862:	c7 01       	movw	r24, r14
     864:	b6 01       	movw	r22, r12
     866:	0e 94 b0 0e 	call	0x1d60	; 0x1d60 <__gesf2>
     86a:	18 16       	cp	r1, r24
     86c:	54 f4       	brge	.+20     	; 0x882 <medianFilter+0x7e>
     86e:	fe 01       	movw	r30, r28
     870:	34 97       	sbiw	r30, 0x04	; 4
     872:	40 82       	st	Z, r4
     874:	51 82       	std	Z+1, r5	; 0x01
     876:	62 82       	std	Z+2, r6	; 0x02
     878:	73 82       	std	Z+3, r7	; 0x03
     87a:	c8 82       	st	Y, r12
     87c:	d9 82       	std	Y+1, r13	; 0x01
     87e:	ea 82       	std	Y+2, r14	; 0x02
     880:	fb 82       	std	Y+3, r15	; 0x03
     882:	c0 17       	cp	r28, r16
     884:	d1 07       	cpc	r29, r17
     886:	19 f7       	brne	.-58     	; 0x84e <medianFilter+0x4a>
     888:	81 e0       	ldi	r24, 0x01	; 1
     88a:	a8 1a       	sub	r10, r24
     88c:	b1 08       	sbc	r11, r1
     88e:	04 50       	subi	r16, 0x04	; 4
     890:	11 09       	sbc	r17, r1
     892:	a1 14       	cp	r10, r1
     894:	b1 04       	cpc	r11, r1
     896:	d1 f6       	brne	.-76     	; 0x84c <medianFilter+0x48>
     898:	20 fe       	sbrs	r2, 0
     89a:	22 c0       	rjmp	.+68     	; 0x8e0 <medianFilter+0xdc>
     89c:	37 fc       	sbrc	r3, 7
     89e:	3d c0       	rjmp	.+122    	; 0x91a <medianFilter+0x116>
     8a0:	35 94       	asr	r3
     8a2:	27 94       	ror	r2
     8a4:	f1 01       	movw	r30, r2
     8a6:	ee 0f       	add	r30, r30
     8a8:	ff 1f       	adc	r31, r31
     8aa:	ee 0f       	add	r30, r30
     8ac:	ff 1f       	adc	r31, r31
     8ae:	e8 0d       	add	r30, r8
     8b0:	f9 1d       	adc	r31, r9
     8b2:	60 81       	ld	r22, Z
     8b4:	71 81       	ldd	r23, Z+1	; 0x01
     8b6:	82 81       	ldd	r24, Z+2	; 0x02
     8b8:	93 81       	ldd	r25, Z+3	; 0x03
     8ba:	df 91       	pop	r29
     8bc:	cf 91       	pop	r28
     8be:	1f 91       	pop	r17
     8c0:	0f 91       	pop	r16
     8c2:	ff 90       	pop	r15
     8c4:	ef 90       	pop	r14
     8c6:	df 90       	pop	r13
     8c8:	cf 90       	pop	r12
     8ca:	bf 90       	pop	r11
     8cc:	af 90       	pop	r10
     8ce:	9f 90       	pop	r9
     8d0:	8f 90       	pop	r8
     8d2:	7f 90       	pop	r7
     8d4:	6f 90       	pop	r6
     8d6:	5f 90       	pop	r5
     8d8:	4f 90       	pop	r4
     8da:	3f 90       	pop	r3
     8dc:	2f 90       	pop	r2
     8de:	08 95       	ret
     8e0:	37 fc       	sbrc	r3, 7
     8e2:	1f c0       	rjmp	.+62     	; 0x922 <medianFilter+0x11e>
     8e4:	f1 01       	movw	r30, r2
     8e6:	f5 95       	asr	r31
     8e8:	e7 95       	ror	r30
     8ea:	e1 50       	subi	r30, 0x01	; 1
     8ec:	f0 4c       	sbci	r31, 0xC0	; 192
     8ee:	ee 0f       	add	r30, r30
     8f0:	ff 1f       	adc	r31, r31
     8f2:	ee 0f       	add	r30, r30
     8f4:	ff 1f       	adc	r31, r31
     8f6:	e8 0d       	add	r30, r8
     8f8:	f9 1d       	adc	r31, r9
     8fa:	20 81       	ld	r18, Z
     8fc:	31 81       	ldd	r19, Z+1	; 0x01
     8fe:	42 81       	ldd	r20, Z+2	; 0x02
     900:	53 81       	ldd	r21, Z+3	; 0x03
     902:	64 81       	ldd	r22, Z+4	; 0x04
     904:	75 81       	ldd	r23, Z+5	; 0x05
     906:	86 81       	ldd	r24, Z+6	; 0x06
     908:	97 81       	ldd	r25, Z+7	; 0x07
     90a:	ff d7       	rcall	.+4094   	; 0x190a <__addsf3>
     90c:	20 e0       	ldi	r18, 0x00	; 0
     90e:	30 e0       	ldi	r19, 0x00	; 0
     910:	40 e0       	ldi	r20, 0x00	; 0
     912:	5f e3       	ldi	r21, 0x3F	; 63
     914:	0e 94 ee 0e 	call	0x1ddc	; 0x1ddc <__mulsf3>
     918:	d0 cf       	rjmp	.-96     	; 0x8ba <medianFilter+0xb6>
     91a:	8f ef       	ldi	r24, 0xFF	; 255
     91c:	28 1a       	sub	r2, r24
     91e:	38 0a       	sbc	r3, r24
     920:	bf cf       	rjmp	.-130    	; 0x8a0 <medianFilter+0x9c>
     922:	8f ef       	ldi	r24, 0xFF	; 255
     924:	28 1a       	sub	r2, r24
     926:	38 0a       	sbc	r3, r24
     928:	dd cf       	rjmp	.-70     	; 0x8e4 <medianFilter+0xe0>

0000092a <getSensorData>:
     92a:	ef 92       	push	r14
     92c:	ff 92       	push	r15
     92e:	0f 93       	push	r16
     930:	1f 93       	push	r17
     932:	cf 93       	push	r28
     934:	df 93       	push	r29
     936:	cd b7       	in	r28, 0x3d	; 61
     938:	de b7       	in	r29, 0x3e	; 62
     93a:	a8 97       	sbiw	r28, 0x28	; 40
     93c:	0f b6       	in	r0, 0x3f	; 63
     93e:	f8 94       	cli
     940:	de bf       	out	0x3e, r29	; 62
     942:	0f be       	out	0x3f, r0	; 63
     944:	cd bf       	out	0x3d, r28	; 61
     946:	8e 01       	movw	r16, r28
     948:	0f 5f       	subi	r16, 0xFF	; 255
     94a:	1f 4f       	sbci	r17, 0xFF	; 255
     94c:	7e 01       	movw	r14, r28
     94e:	85 e1       	ldi	r24, 0x15	; 21
     950:	e8 0e       	add	r14, r24
     952:	f1 1c       	adc	r15, r1
     954:	83 e0       	ldi	r24, 0x03	; 3
     956:	31 dc       	rcall	.-1950   	; 0x1ba <ADC_read>
     958:	bc 01       	movw	r22, r24
     95a:	99 0f       	add	r25, r25
     95c:	88 0b       	sbc	r24, r24
     95e:	99 0b       	sbc	r25, r25
     960:	0e 94 87 0d 	call	0x1b0e	; 0x1b0e <__floatsisf>
     964:	f8 01       	movw	r30, r16
     966:	61 93       	st	Z+, r22
     968:	71 93       	st	Z+, r23
     96a:	81 93       	st	Z+, r24
     96c:	91 93       	st	Z+, r25
     96e:	8f 01       	movw	r16, r30
     970:	80 e0       	ldi	r24, 0x00	; 0
     972:	23 dc       	rcall	.-1978   	; 0x1ba <ADC_read>
     974:	bc 01       	movw	r22, r24
     976:	99 0f       	add	r25, r25
     978:	88 0b       	sbc	r24, r24
     97a:	99 0b       	sbc	r25, r25
     97c:	0e 94 87 0d 	call	0x1b0e	; 0x1b0e <__floatsisf>
     980:	f8 01       	movw	r30, r16
     982:	60 8b       	std	Z+16, r22	; 0x10
     984:	71 8b       	std	Z+17, r23	; 0x11
     986:	82 8b       	std	Z+18, r24	; 0x12
     988:	93 8b       	std	Z+19, r25	; 0x13
     98a:	87 ea       	ldi	r24, 0xA7	; 167
     98c:	91 e6       	ldi	r25, 0x61	; 97
     98e:	01 97       	sbiw	r24, 0x01	; 1
     990:	f1 f7       	brne	.-4      	; 0x98e <getSensorData+0x64>
     992:	00 c0       	rjmp	.+0      	; 0x994 <getSensorData+0x6a>
     994:	00 00       	nop
     996:	0e 15       	cp	r16, r14
     998:	1f 05       	cpc	r17, r15
     99a:	e1 f6       	brne	.-72     	; 0x954 <getSensorData+0x2a>
     99c:	65 e0       	ldi	r22, 0x05	; 5
     99e:	70 e0       	ldi	r23, 0x00	; 0
     9a0:	ce 01       	movw	r24, r28
     9a2:	01 96       	adiw	r24, 0x01	; 1
     9a4:	2f df       	rcall	.-418    	; 0x804 <medianFilter>
     9a6:	60 93 02 01 	sts	0x0102, r22	; 0x800102 <raw_sensor_data>
     9aa:	70 93 03 01 	sts	0x0103, r23	; 0x800103 <raw_sensor_data+0x1>
     9ae:	80 93 04 01 	sts	0x0104, r24	; 0x800104 <raw_sensor_data+0x2>
     9b2:	90 93 05 01 	sts	0x0105, r25	; 0x800105 <raw_sensor_data+0x3>
     9b6:	65 e0       	ldi	r22, 0x05	; 5
     9b8:	70 e0       	ldi	r23, 0x00	; 0
     9ba:	c8 01       	movw	r24, r16
     9bc:	23 df       	rcall	.-442    	; 0x804 <medianFilter>
     9be:	60 93 06 01 	sts	0x0106, r22	; 0x800106 <raw_sensor_data+0x4>
     9c2:	70 93 07 01 	sts	0x0107, r23	; 0x800107 <raw_sensor_data+0x5>
     9c6:	80 93 08 01 	sts	0x0108, r24	; 0x800108 <raw_sensor_data+0x6>
     9ca:	90 93 09 01 	sts	0x0109, r25	; 0x800109 <raw_sensor_data+0x7>
     9ce:	a8 96       	adiw	r28, 0x28	; 40
     9d0:	0f b6       	in	r0, 0x3f	; 63
     9d2:	f8 94       	cli
     9d4:	de bf       	out	0x3e, r29	; 62
     9d6:	0f be       	out	0x3f, r0	; 63
     9d8:	cd bf       	out	0x3d, r28	; 61
     9da:	df 91       	pop	r29
     9dc:	cf 91       	pop	r28
     9de:	1f 91       	pop	r17
     9e0:	0f 91       	pop	r16
     9e2:	ff 90       	pop	r15
     9e4:	ef 90       	pop	r14
     9e6:	08 95       	ret

000009e8 <getHome>:
     9e8:	3f 92       	push	r3
     9ea:	4f 92       	push	r4
     9ec:	5f 92       	push	r5
     9ee:	6f 92       	push	r6
     9f0:	7f 92       	push	r7
     9f2:	8f 92       	push	r8
     9f4:	9f 92       	push	r9
     9f6:	af 92       	push	r10
     9f8:	bf 92       	push	r11
     9fa:	cf 92       	push	r12
     9fc:	df 92       	push	r13
     9fe:	ef 92       	push	r14
     a00:	ff 92       	push	r15
     a02:	0f 93       	push	r16
     a04:	1f 93       	push	r17
     a06:	cf 93       	push	r28
     a08:	df 93       	push	r29
     a0a:	cd b7       	in	r28, 0x3d	; 61
     a0c:	de b7       	in	r29, 0x3e	; 62
     a0e:	a4 97       	sbiw	r28, 0x24	; 36
     a10:	0f b6       	in	r0, 0x3f	; 63
     a12:	f8 94       	cli
     a14:	de bf       	out	0x3e, r29	; 62
     a16:	0f be       	out	0x3f, r0	; 63
     a18:	cd bf       	out	0x3d, r28	; 61
     a1a:	87 df       	rcall	.-242    	; 0x92a <getSensorData>
     a1c:	02 e0       	ldi	r16, 0x02	; 2
     a1e:	11 e0       	ldi	r17, 0x01	; 1
     a20:	20 e0       	ldi	r18, 0x00	; 0
     a22:	30 e0       	ldi	r19, 0x00	; 0
     a24:	40 e8       	ldi	r20, 0x80	; 128
     a26:	5a e3       	ldi	r21, 0x3A	; 58
     a28:	d8 01       	movw	r26, r16
     a2a:	6d 91       	ld	r22, X+
     a2c:	7d 91       	ld	r23, X+
     a2e:	8d 91       	ld	r24, X+
     a30:	9c 91       	ld	r25, X
     a32:	0e 94 ee 0e 	call	0x1ddc	; 0x1ddc <__mulsf3>
     a36:	25 ea       	ldi	r18, 0xA5	; 165
     a38:	3e e4       	ldi	r19, 0x4E	; 78
     a3a:	48 eb       	ldi	r20, 0xB8	; 184
     a3c:	50 e4       	ldi	r21, 0x40	; 64
     a3e:	0e 94 ee 0e 	call	0x1ddc	; 0x1ddc <__mulsf3>
     a42:	20 e5       	ldi	r18, 0x50	; 80
     a44:	3d e8       	ldi	r19, 0x8D	; 141
     a46:	47 ea       	ldi	r20, 0xA7	; 167
     a48:	5f e3       	ldi	r21, 0x3F	; 63
     a4a:	5e d7       	rcall	.+3772   	; 0x1908 <__subsf3>
     a4c:	4b 01       	movw	r8, r22
     a4e:	5c 01       	movw	r10, r24
     a50:	20 e0       	ldi	r18, 0x00	; 0
     a52:	30 e0       	ldi	r19, 0x00	; 0
     a54:	40 e8       	ldi	r20, 0x80	; 128
     a56:	5a e3       	ldi	r21, 0x3A	; 58
     a58:	f8 01       	movw	r30, r16
     a5a:	64 81       	ldd	r22, Z+4	; 0x04
     a5c:	75 81       	ldd	r23, Z+5	; 0x05
     a5e:	86 81       	ldd	r24, Z+6	; 0x06
     a60:	97 81       	ldd	r25, Z+7	; 0x07
     a62:	0e 94 ee 0e 	call	0x1ddc	; 0x1ddc <__mulsf3>
     a66:	25 ea       	ldi	r18, 0xA5	; 165
     a68:	3e e4       	ldi	r19, 0x4E	; 78
     a6a:	48 eb       	ldi	r20, 0xB8	; 184
     a6c:	50 e4       	ldi	r21, 0x40	; 64
     a6e:	0e 94 ee 0e 	call	0x1ddc	; 0x1ddc <__mulsf3>
     a72:	20 e5       	ldi	r18, 0x50	; 80
     a74:	3d e8       	ldi	r19, 0x8D	; 141
     a76:	47 ea       	ldi	r20, 0xA7	; 167
     a78:	5f e3       	ldi	r21, 0x3F	; 63
     a7a:	46 d7       	rcall	.+3724   	; 0x1908 <__subsf3>
     a7c:	2b 01       	movw	r4, r22
     a7e:	3c 01       	movw	r6, r24
     a80:	0a e0       	ldi	r16, 0x0A	; 10
     a82:	11 e0       	ldi	r17, 0x01	; 1
     a84:	d8 01       	movw	r26, r16
     a86:	cd 90       	ld	r12, X+
     a88:	dd 90       	ld	r13, X+
     a8a:	ed 90       	ld	r14, X+
     a8c:	fc 90       	ld	r15, X
     a8e:	c5 01       	movw	r24, r10
     a90:	b4 01       	movw	r22, r8
     a92:	9f d7       	rcall	.+3902   	; 0x19d2 <cos>
     a94:	9b 01       	movw	r18, r22
     a96:	ac 01       	movw	r20, r24
     a98:	c7 01       	movw	r24, r14
     a9a:	b6 01       	movw	r22, r12
     a9c:	0e 94 ee 0e 	call	0x1ddc	; 0x1ddc <__mulsf3>
     aa0:	20 e0       	ldi	r18, 0x00	; 0
     aa2:	30 e0       	ldi	r19, 0x00	; 0
     aa4:	a9 01       	movw	r20, r18
     aa6:	31 d7       	rcall	.+3682   	; 0x190a <__addsf3>
     aa8:	6d 8f       	std	Y+29, r22	; 0x1d
     aaa:	7e 8f       	std	Y+30, r23	; 0x1e
     aac:	8f 8f       	std	Y+31, r24	; 0x1f
     aae:	98 a3       	std	Y+32, r25	; 0x20
     ab0:	c5 01       	movw	r24, r10
     ab2:	b4 01       	movw	r22, r8
     ab4:	0e 94 71 0f 	call	0x1ee2	; 0x1ee2 <sin>
     ab8:	9b 01       	movw	r18, r22
     aba:	ac 01       	movw	r20, r24
     abc:	c7 01       	movw	r24, r14
     abe:	b6 01       	movw	r22, r12
     ac0:	0e 94 ee 0e 	call	0x1ddc	; 0x1ddc <__mulsf3>
     ac4:	20 e0       	ldi	r18, 0x00	; 0
     ac6:	30 e0       	ldi	r19, 0x00	; 0
     ac8:	a9 01       	movw	r20, r18
     aca:	1f d7       	rcall	.+3646   	; 0x190a <__addsf3>
     acc:	69 a3       	std	Y+33, r22	; 0x21
     ace:	7a a3       	std	Y+34, r23	; 0x22
     ad0:	8b a3       	std	Y+35, r24	; 0x23
     ad2:	9c a3       	std	Y+36, r25	; 0x24
     ad4:	f8 01       	movw	r30, r16
     ad6:	c4 80       	ldd	r12, Z+4	; 0x04
     ad8:	d5 80       	ldd	r13, Z+5	; 0x05
     ada:	e6 80       	ldd	r14, Z+6	; 0x06
     adc:	f7 80       	ldd	r15, Z+7	; 0x07
     ade:	c3 01       	movw	r24, r6
     ae0:	b2 01       	movw	r22, r4
     ae2:	77 d7       	rcall	.+3822   	; 0x19d2 <cos>
     ae4:	4b 01       	movw	r8, r22
     ae6:	5c 01       	movw	r10, r24
     ae8:	c3 01       	movw	r24, r6
     aea:	b2 01       	movw	r22, r4
     aec:	0e 94 71 0f 	call	0x1ee2	; 0x1ee2 <sin>
     af0:	2b 01       	movw	r4, r22
     af2:	3c 01       	movw	r6, r24
     af4:	a5 01       	movw	r20, r10
     af6:	94 01       	movw	r18, r8
     af8:	c7 01       	movw	r24, r14
     afa:	b6 01       	movw	r22, r12
     afc:	0e 94 ee 0e 	call	0x1ddc	; 0x1ddc <__mulsf3>
     b00:	22 e5       	ldi	r18, 0x52	; 82
     b02:	38 eb       	ldi	r19, 0xB8	; 184
     b04:	46 eb       	ldi	r20, 0xB6	; 182
     b06:	51 e4       	ldi	r21, 0x41	; 65
     b08:	00 d7       	rcall	.+3584   	; 0x190a <__addsf3>
     b0a:	2d 8d       	ldd	r18, Y+29	; 0x1d
     b0c:	3e 8d       	ldd	r19, Y+30	; 0x1e
     b0e:	4f 8d       	ldd	r20, Y+31	; 0x1f
     b10:	58 a1       	ldd	r21, Y+32	; 0x20
     b12:	fa d6       	rcall	.+3572   	; 0x1908 <__subsf3>
     b14:	69 8b       	std	Y+17, r22	; 0x11
     b16:	7a 8b       	std	Y+18, r23	; 0x12
     b18:	8b 8b       	std	Y+19, r24	; 0x13
     b1a:	9c 8b       	std	Y+20, r25	; 0x14
     b1c:	a3 01       	movw	r20, r6
     b1e:	92 01       	movw	r18, r4
     b20:	c7 01       	movw	r24, r14
     b22:	b6 01       	movw	r22, r12
     b24:	0e 94 ee 0e 	call	0x1ddc	; 0x1ddc <__mulsf3>
     b28:	20 e0       	ldi	r18, 0x00	; 0
     b2a:	30 e0       	ldi	r19, 0x00	; 0
     b2c:	a9 01       	movw	r20, r18
     b2e:	ed d6       	rcall	.+3546   	; 0x190a <__addsf3>
     b30:	29 a1       	ldd	r18, Y+33	; 0x21
     b32:	3a a1       	ldd	r19, Y+34	; 0x22
     b34:	4b a1       	ldd	r20, Y+35	; 0x23
     b36:	5c a1       	ldd	r21, Y+36	; 0x24
     b38:	e7 d6       	rcall	.+3534   	; 0x1908 <__subsf3>
     b3a:	6d 8b       	std	Y+21, r22	; 0x15
     b3c:	7e 8b       	std	Y+22, r23	; 0x16
     b3e:	8f 8b       	std	Y+23, r24	; 0x17
     b40:	98 8f       	std	Y+24, r25	; 0x18
     b42:	29 89       	ldd	r18, Y+17	; 0x11
     b44:	3a 89       	ldd	r19, Y+18	; 0x12
     b46:	4b 89       	ldd	r20, Y+19	; 0x13
     b48:	5c 89       	ldd	r21, Y+20	; 0x14
     b4a:	ca 01       	movw	r24, r20
     b4c:	b9 01       	movw	r22, r18
     b4e:	0e 94 ee 0e 	call	0x1ddc	; 0x1ddc <__mulsf3>
     b52:	6b 01       	movw	r12, r22
     b54:	7c 01       	movw	r14, r24
     b56:	2d 89       	ldd	r18, Y+21	; 0x15
     b58:	3e 89       	ldd	r19, Y+22	; 0x16
     b5a:	4f 89       	ldd	r20, Y+23	; 0x17
     b5c:	58 8d       	ldd	r21, Y+24	; 0x18
     b5e:	ca 01       	movw	r24, r20
     b60:	b9 01       	movw	r22, r18
     b62:	0e 94 ee 0e 	call	0x1ddc	; 0x1ddc <__mulsf3>
     b66:	9b 01       	movw	r18, r22
     b68:	ac 01       	movw	r20, r24
     b6a:	c7 01       	movw	r24, r14
     b6c:	b6 01       	movw	r22, r12
     b6e:	cd d6       	rcall	.+3482   	; 0x190a <__addsf3>
     b70:	0e 94 7b 0f 	call	0x1ef6	; 0x1ef6 <sqrt>
     b74:	4b 01       	movw	r8, r22
     b76:	5c 01       	movw	r10, r24
     b78:	d8 01       	movw	r26, r16
     b7a:	18 96       	adiw	r26, 0x08	; 8
     b7c:	cd 90       	ld	r12, X+
     b7e:	dd 90       	ld	r13, X+
     b80:	ed 90       	ld	r14, X+
     b82:	fc 90       	ld	r15, X
     b84:	1b 97       	sbiw	r26, 0x0b	; 11
     b86:	1c 96       	adiw	r26, 0x0c	; 12
     b88:	8d 91       	ld	r24, X+
     b8a:	9d 91       	ld	r25, X+
     b8c:	0d 90       	ld	r0, X+
     b8e:	bc 91       	ld	r27, X
     b90:	a0 2d       	mov	r26, r0
     b92:	89 8f       	std	Y+25, r24	; 0x19
     b94:	9a 8f       	std	Y+26, r25	; 0x1a
     b96:	ab 8f       	std	Y+27, r26	; 0x1b
     b98:	bc 8f       	std	Y+28, r27	; 0x1c
     b9a:	a7 01       	movw	r20, r14
     b9c:	96 01       	movw	r18, r12
     b9e:	c7 01       	movw	r24, r14
     ba0:	b6 01       	movw	r22, r12
     ba2:	0e 94 ee 0e 	call	0x1ddc	; 0x1ddc <__mulsf3>
     ba6:	2b 01       	movw	r4, r22
     ba8:	3c 01       	movw	r6, r24
     baa:	a5 01       	movw	r20, r10
     bac:	94 01       	movw	r18, r8
     bae:	c5 01       	movw	r24, r10
     bb0:	b4 01       	movw	r22, r8
     bb2:	0e 94 ee 0e 	call	0x1ddc	; 0x1ddc <__mulsf3>
     bb6:	9b 01       	movw	r18, r22
     bb8:	ac 01       	movw	r20, r24
     bba:	c3 01       	movw	r24, r6
     bbc:	b2 01       	movw	r22, r4
     bbe:	a5 d6       	rcall	.+3402   	; 0x190a <__addsf3>
     bc0:	2b 01       	movw	r4, r22
     bc2:	3c 01       	movw	r6, r24
     bc4:	29 8d       	ldd	r18, Y+25	; 0x19
     bc6:	3a 8d       	ldd	r19, Y+26	; 0x1a
     bc8:	4b 8d       	ldd	r20, Y+27	; 0x1b
     bca:	5c 8d       	ldd	r21, Y+28	; 0x1c
     bcc:	ca 01       	movw	r24, r20
     bce:	b9 01       	movw	r22, r18
     bd0:	0e 94 ee 0e 	call	0x1ddc	; 0x1ddc <__mulsf3>
     bd4:	9b 01       	movw	r18, r22
     bd6:	ac 01       	movw	r20, r24
     bd8:	c3 01       	movw	r24, r6
     bda:	b2 01       	movw	r22, r4
     bdc:	95 d6       	rcall	.+3370   	; 0x1908 <__subsf3>
     bde:	2b 01       	movw	r4, r22
     be0:	3c 01       	movw	r6, r24
     be2:	a7 01       	movw	r20, r14
     be4:	96 01       	movw	r18, r12
     be6:	c7 01       	movw	r24, r14
     be8:	b6 01       	movw	r22, r12
     bea:	8f d6       	rcall	.+3358   	; 0x190a <__addsf3>
     bec:	a5 01       	movw	r20, r10
     bee:	94 01       	movw	r18, r8
     bf0:	0e 94 ee 0e 	call	0x1ddc	; 0x1ddc <__mulsf3>
     bf4:	9b 01       	movw	r18, r22
     bf6:	ac 01       	movw	r20, r24
     bf8:	c3 01       	movw	r24, r6
     bfa:	b2 01       	movw	r22, r4
     bfc:	ed d6       	rcall	.+3546   	; 0x19d8 <__divsf3>
     bfe:	76 d6       	rcall	.+3308   	; 0x18ec <acos>
     c00:	2b 01       	movw	r4, r22
     c02:	3c 01       	movw	r6, r24
     c04:	a7 01       	movw	r20, r14
     c06:	96 01       	movw	r18, r12
     c08:	69 89       	ldd	r22, Y+17	; 0x11
     c0a:	7a 89       	ldd	r23, Y+18	; 0x12
     c0c:	8b 89       	ldd	r24, Y+19	; 0x13
     c0e:	9c 89       	ldd	r25, Y+20	; 0x14
     c10:	0e 94 ee 0e 	call	0x1ddc	; 0x1ddc <__mulsf3>
     c14:	a5 01       	movw	r20, r10
     c16:	94 01       	movw	r18, r8
     c18:	df d6       	rcall	.+3518   	; 0x19d8 <__divsf3>
     c1a:	36 2e       	mov	r3, r22
     c1c:	ab 01       	movw	r20, r22
     c1e:	bc 01       	movw	r22, r24
     c20:	49 87       	std	Y+9, r20	; 0x09
     c22:	5a 87       	std	Y+10, r21	; 0x0a
     c24:	6b 87       	std	Y+11, r22	; 0x0b
     c26:	7c 87       	std	Y+12, r23	; 0x0c
     c28:	a7 01       	movw	r20, r14
     c2a:	96 01       	movw	r18, r12
     c2c:	6d 89       	ldd	r22, Y+21	; 0x15
     c2e:	7e 89       	ldd	r23, Y+22	; 0x16
     c30:	8f 89       	ldd	r24, Y+23	; 0x17
     c32:	98 8d       	ldd	r25, Y+24	; 0x18
     c34:	0e 94 ee 0e 	call	0x1ddc	; 0x1ddc <__mulsf3>
     c38:	a5 01       	movw	r20, r10
     c3a:	94 01       	movw	r18, r8
     c3c:	cd d6       	rcall	.+3482   	; 0x19d8 <__divsf3>
     c3e:	e6 2f       	mov	r30, r22
     c40:	ab 01       	movw	r20, r22
     c42:	bc 01       	movw	r22, r24
     c44:	4d 87       	std	Y+13, r20	; 0x0d
     c46:	5e 87       	std	Y+14, r21	; 0x0e
     c48:	6f 87       	std	Y+15, r22	; 0x0f
     c4a:	78 8b       	std	Y+16, r23	; 0x10
     c4c:	83 01       	movw	r16, r6
     c4e:	72 01       	movw	r14, r4
     c50:	23 2d       	mov	r18, r3
     c52:	3a 85       	ldd	r19, Y+10	; 0x0a
     c54:	4b 85       	ldd	r20, Y+11	; 0x0b
     c56:	5c 85       	ldd	r21, Y+12	; 0x0c
     c58:	6e 2f       	mov	r22, r30
     c5a:	7e 85       	ldd	r23, Y+14	; 0x0e
     c5c:	8f 85       	ldd	r24, Y+15	; 0x0f
     c5e:	98 89       	ldd	r25, Y+16	; 0x10
     c60:	37 dd       	rcall	.-1426   	; 0x6d0 <rotateVector>
     c62:	29 83       	std	Y+1, r18	; 0x01
     c64:	3a 83       	std	Y+2, r19	; 0x02
     c66:	4b 83       	std	Y+3, r20	; 0x03
     c68:	5c 83       	std	Y+4, r21	; 0x04
     c6a:	6d 83       	std	Y+5, r22	; 0x05
     c6c:	7e 83       	std	Y+6, r23	; 0x06
     c6e:	8f 83       	std	Y+7, r24	; 0x07
     c70:	98 87       	std	Y+8, r25	; 0x08
     c72:	01 e4       	ldi	r16, 0x41	; 65
     c74:	11 e0       	ldi	r17, 0x01	; 1
     c76:	2d 8d       	ldd	r18, Y+29	; 0x1d
     c78:	3e 8d       	ldd	r19, Y+30	; 0x1e
     c7a:	4f 8d       	ldd	r20, Y+31	; 0x1f
     c7c:	58 a1       	ldd	r21, Y+32	; 0x20
     c7e:	69 81       	ldd	r22, Y+1	; 0x01
     c80:	7a 81       	ldd	r23, Y+2	; 0x02
     c82:	8b 81       	ldd	r24, Y+3	; 0x03
     c84:	9c 81       	ldd	r25, Y+4	; 0x04
     c86:	41 d6       	rcall	.+3202   	; 0x190a <__addsf3>
     c88:	f8 01       	movw	r30, r16
     c8a:	60 83       	st	Z, r22
     c8c:	71 83       	std	Z+1, r23	; 0x01
     c8e:	82 83       	std	Z+2, r24	; 0x02
     c90:	93 83       	std	Z+3, r25	; 0x03
     c92:	29 a1       	ldd	r18, Y+33	; 0x21
     c94:	3a a1       	ldd	r19, Y+34	; 0x22
     c96:	4b a1       	ldd	r20, Y+35	; 0x23
     c98:	5c a1       	ldd	r21, Y+36	; 0x24
     c9a:	6d 81       	ldd	r22, Y+5	; 0x05
     c9c:	7e 81       	ldd	r23, Y+6	; 0x06
     c9e:	8f 81       	ldd	r24, Y+7	; 0x07
     ca0:	98 85       	ldd	r25, Y+8	; 0x08
     ca2:	33 d6       	rcall	.+3174   	; 0x190a <__addsf3>
     ca4:	d8 01       	movw	r26, r16
     ca6:	14 96       	adiw	r26, 0x04	; 4
     ca8:	6d 93       	st	X+, r22
     caa:	7d 93       	st	X+, r23
     cac:	8d 93       	st	X+, r24
     cae:	9c 93       	st	X, r25
     cb0:	17 97       	sbiw	r26, 0x07	; 7
     cb2:	a4 96       	adiw	r28, 0x24	; 36
     cb4:	0f b6       	in	r0, 0x3f	; 63
     cb6:	f8 94       	cli
     cb8:	de bf       	out	0x3e, r29	; 62
     cba:	0f be       	out	0x3f, r0	; 63
     cbc:	cd bf       	out	0x3d, r28	; 61
     cbe:	df 91       	pop	r29
     cc0:	cf 91       	pop	r28
     cc2:	1f 91       	pop	r17
     cc4:	0f 91       	pop	r16
     cc6:	ff 90       	pop	r15
     cc8:	ef 90       	pop	r14
     cca:	df 90       	pop	r13
     ccc:	cf 90       	pop	r12
     cce:	bf 90       	pop	r11
     cd0:	af 90       	pop	r10
     cd2:	9f 90       	pop	r9
     cd4:	8f 90       	pop	r8
     cd6:	7f 90       	pop	r7
     cd8:	6f 90       	pop	r6
     cda:	5f 90       	pop	r5
     cdc:	4f 90       	pop	r4
     cde:	3f 90       	pop	r3
     ce0:	08 95       	ret

00000ce2 <sensorKinematics>:
     ce2:	3f 92       	push	r3
     ce4:	4f 92       	push	r4
     ce6:	5f 92       	push	r5
     ce8:	6f 92       	push	r6
     cea:	7f 92       	push	r7
     cec:	8f 92       	push	r8
     cee:	9f 92       	push	r9
     cf0:	af 92       	push	r10
     cf2:	bf 92       	push	r11
     cf4:	cf 92       	push	r12
     cf6:	df 92       	push	r13
     cf8:	ef 92       	push	r14
     cfa:	ff 92       	push	r15
     cfc:	0f 93       	push	r16
     cfe:	1f 93       	push	r17
     d00:	cf 93       	push	r28
     d02:	df 93       	push	r29
     d04:	cd b7       	in	r28, 0x3d	; 61
     d06:	de b7       	in	r29, 0x3e	; 62
     d08:	a4 97       	sbiw	r28, 0x24	; 36
     d0a:	0f b6       	in	r0, 0x3f	; 63
     d0c:	f8 94       	cli
     d0e:	de bf       	out	0x3e, r29	; 62
     d10:	0f be       	out	0x3f, r0	; 63
     d12:	cd bf       	out	0x3d, r28	; 61
     d14:	0a de       	rcall	.-1004   	; 0x92a <getSensorData>
     d16:	02 e0       	ldi	r16, 0x02	; 2
     d18:	11 e0       	ldi	r17, 0x01	; 1
     d1a:	20 e0       	ldi	r18, 0x00	; 0
     d1c:	30 e0       	ldi	r19, 0x00	; 0
     d1e:	40 e8       	ldi	r20, 0x80	; 128
     d20:	5a e3       	ldi	r21, 0x3A	; 58
     d22:	d8 01       	movw	r26, r16
     d24:	6d 91       	ld	r22, X+
     d26:	7d 91       	ld	r23, X+
     d28:	8d 91       	ld	r24, X+
     d2a:	9c 91       	ld	r25, X
     d2c:	0e 94 ee 0e 	call	0x1ddc	; 0x1ddc <__mulsf3>
     d30:	25 ea       	ldi	r18, 0xA5	; 165
     d32:	3e e4       	ldi	r19, 0x4E	; 78
     d34:	48 eb       	ldi	r20, 0xB8	; 184
     d36:	50 e4       	ldi	r21, 0x40	; 64
     d38:	0e 94 ee 0e 	call	0x1ddc	; 0x1ddc <__mulsf3>
     d3c:	20 e5       	ldi	r18, 0x50	; 80
     d3e:	3d e8       	ldi	r19, 0x8D	; 141
     d40:	47 ea       	ldi	r20, 0xA7	; 167
     d42:	5f e3       	ldi	r21, 0x3F	; 63
     d44:	e1 d5       	rcall	.+3010   	; 0x1908 <__subsf3>
     d46:	4b 01       	movw	r8, r22
     d48:	5c 01       	movw	r10, r24
     d4a:	20 e0       	ldi	r18, 0x00	; 0
     d4c:	30 e0       	ldi	r19, 0x00	; 0
     d4e:	40 e8       	ldi	r20, 0x80	; 128
     d50:	5a e3       	ldi	r21, 0x3A	; 58
     d52:	f8 01       	movw	r30, r16
     d54:	64 81       	ldd	r22, Z+4	; 0x04
     d56:	75 81       	ldd	r23, Z+5	; 0x05
     d58:	86 81       	ldd	r24, Z+6	; 0x06
     d5a:	97 81       	ldd	r25, Z+7	; 0x07
     d5c:	0e 94 ee 0e 	call	0x1ddc	; 0x1ddc <__mulsf3>
     d60:	25 ea       	ldi	r18, 0xA5	; 165
     d62:	3e e4       	ldi	r19, 0x4E	; 78
     d64:	48 eb       	ldi	r20, 0xB8	; 184
     d66:	50 e4       	ldi	r21, 0x40	; 64
     d68:	0e 94 ee 0e 	call	0x1ddc	; 0x1ddc <__mulsf3>
     d6c:	20 e5       	ldi	r18, 0x50	; 80
     d6e:	3d e8       	ldi	r19, 0x8D	; 141
     d70:	47 ea       	ldi	r20, 0xA7	; 167
     d72:	5f e3       	ldi	r21, 0x3F	; 63
     d74:	c9 d5       	rcall	.+2962   	; 0x1908 <__subsf3>
     d76:	2b 01       	movw	r4, r22
     d78:	3c 01       	movw	r6, r24
     d7a:	0a e0       	ldi	r16, 0x0A	; 10
     d7c:	11 e0       	ldi	r17, 0x01	; 1
     d7e:	d8 01       	movw	r26, r16
     d80:	cd 90       	ld	r12, X+
     d82:	dd 90       	ld	r13, X+
     d84:	ed 90       	ld	r14, X+
     d86:	fc 90       	ld	r15, X
     d88:	c5 01       	movw	r24, r10
     d8a:	b4 01       	movw	r22, r8
     d8c:	22 d6       	rcall	.+3140   	; 0x19d2 <cos>
     d8e:	9b 01       	movw	r18, r22
     d90:	ac 01       	movw	r20, r24
     d92:	c7 01       	movw	r24, r14
     d94:	b6 01       	movw	r22, r12
     d96:	0e 94 ee 0e 	call	0x1ddc	; 0x1ddc <__mulsf3>
     d9a:	20 e0       	ldi	r18, 0x00	; 0
     d9c:	30 e0       	ldi	r19, 0x00	; 0
     d9e:	a9 01       	movw	r20, r18
     da0:	b4 d5       	rcall	.+2920   	; 0x190a <__addsf3>
     da2:	6d 8f       	std	Y+29, r22	; 0x1d
     da4:	7e 8f       	std	Y+30, r23	; 0x1e
     da6:	8f 8f       	std	Y+31, r24	; 0x1f
     da8:	98 a3       	std	Y+32, r25	; 0x20
     daa:	c5 01       	movw	r24, r10
     dac:	b4 01       	movw	r22, r8
     dae:	0e 94 71 0f 	call	0x1ee2	; 0x1ee2 <sin>
     db2:	9b 01       	movw	r18, r22
     db4:	ac 01       	movw	r20, r24
     db6:	c7 01       	movw	r24, r14
     db8:	b6 01       	movw	r22, r12
     dba:	0e 94 ee 0e 	call	0x1ddc	; 0x1ddc <__mulsf3>
     dbe:	20 e0       	ldi	r18, 0x00	; 0
     dc0:	30 e0       	ldi	r19, 0x00	; 0
     dc2:	a9 01       	movw	r20, r18
     dc4:	a2 d5       	rcall	.+2884   	; 0x190a <__addsf3>
     dc6:	69 a3       	std	Y+33, r22	; 0x21
     dc8:	7a a3       	std	Y+34, r23	; 0x22
     dca:	8b a3       	std	Y+35, r24	; 0x23
     dcc:	9c a3       	std	Y+36, r25	; 0x24
     dce:	f8 01       	movw	r30, r16
     dd0:	c4 80       	ldd	r12, Z+4	; 0x04
     dd2:	d5 80       	ldd	r13, Z+5	; 0x05
     dd4:	e6 80       	ldd	r14, Z+6	; 0x06
     dd6:	f7 80       	ldd	r15, Z+7	; 0x07
     dd8:	c3 01       	movw	r24, r6
     dda:	b2 01       	movw	r22, r4
     ddc:	fa d5       	rcall	.+3060   	; 0x19d2 <cos>
     dde:	4b 01       	movw	r8, r22
     de0:	5c 01       	movw	r10, r24
     de2:	c3 01       	movw	r24, r6
     de4:	b2 01       	movw	r22, r4
     de6:	0e 94 71 0f 	call	0x1ee2	; 0x1ee2 <sin>
     dea:	2b 01       	movw	r4, r22
     dec:	3c 01       	movw	r6, r24
     dee:	a5 01       	movw	r20, r10
     df0:	94 01       	movw	r18, r8
     df2:	c7 01       	movw	r24, r14
     df4:	b6 01       	movw	r22, r12
     df6:	f2 d7       	rcall	.+4068   	; 0x1ddc <__mulsf3>
     df8:	22 e5       	ldi	r18, 0x52	; 82
     dfa:	38 eb       	ldi	r19, 0xB8	; 184
     dfc:	46 eb       	ldi	r20, 0xB6	; 182
     dfe:	51 e4       	ldi	r21, 0x41	; 65
     e00:	84 d5       	rcall	.+2824   	; 0x190a <__addsf3>
     e02:	2d 8d       	ldd	r18, Y+29	; 0x1d
     e04:	3e 8d       	ldd	r19, Y+30	; 0x1e
     e06:	4f 8d       	ldd	r20, Y+31	; 0x1f
     e08:	58 a1       	ldd	r21, Y+32	; 0x20
     e0a:	7e d5       	rcall	.+2812   	; 0x1908 <__subsf3>
     e0c:	69 8b       	std	Y+17, r22	; 0x11
     e0e:	7a 8b       	std	Y+18, r23	; 0x12
     e10:	8b 8b       	std	Y+19, r24	; 0x13
     e12:	9c 8b       	std	Y+20, r25	; 0x14
     e14:	a3 01       	movw	r20, r6
     e16:	92 01       	movw	r18, r4
     e18:	c7 01       	movw	r24, r14
     e1a:	b6 01       	movw	r22, r12
     e1c:	df d7       	rcall	.+4030   	; 0x1ddc <__mulsf3>
     e1e:	20 e0       	ldi	r18, 0x00	; 0
     e20:	30 e0       	ldi	r19, 0x00	; 0
     e22:	a9 01       	movw	r20, r18
     e24:	72 d5       	rcall	.+2788   	; 0x190a <__addsf3>
     e26:	29 a1       	ldd	r18, Y+33	; 0x21
     e28:	3a a1       	ldd	r19, Y+34	; 0x22
     e2a:	4b a1       	ldd	r20, Y+35	; 0x23
     e2c:	5c a1       	ldd	r21, Y+36	; 0x24
     e2e:	6c d5       	rcall	.+2776   	; 0x1908 <__subsf3>
     e30:	6d 8b       	std	Y+21, r22	; 0x15
     e32:	7e 8b       	std	Y+22, r23	; 0x16
     e34:	8f 8b       	std	Y+23, r24	; 0x17
     e36:	98 8f       	std	Y+24, r25	; 0x18
     e38:	29 89       	ldd	r18, Y+17	; 0x11
     e3a:	3a 89       	ldd	r19, Y+18	; 0x12
     e3c:	4b 89       	ldd	r20, Y+19	; 0x13
     e3e:	5c 89       	ldd	r21, Y+20	; 0x14
     e40:	ca 01       	movw	r24, r20
     e42:	b9 01       	movw	r22, r18
     e44:	cb d7       	rcall	.+3990   	; 0x1ddc <__mulsf3>
     e46:	6b 01       	movw	r12, r22
     e48:	7c 01       	movw	r14, r24
     e4a:	2d 89       	ldd	r18, Y+21	; 0x15
     e4c:	3e 89       	ldd	r19, Y+22	; 0x16
     e4e:	4f 89       	ldd	r20, Y+23	; 0x17
     e50:	58 8d       	ldd	r21, Y+24	; 0x18
     e52:	ca 01       	movw	r24, r20
     e54:	b9 01       	movw	r22, r18
     e56:	c2 d7       	rcall	.+3972   	; 0x1ddc <__mulsf3>
     e58:	9b 01       	movw	r18, r22
     e5a:	ac 01       	movw	r20, r24
     e5c:	c7 01       	movw	r24, r14
     e5e:	b6 01       	movw	r22, r12
     e60:	54 d5       	rcall	.+2728   	; 0x190a <__addsf3>
     e62:	0e 94 7b 0f 	call	0x1ef6	; 0x1ef6 <sqrt>
     e66:	4b 01       	movw	r8, r22
     e68:	5c 01       	movw	r10, r24
     e6a:	d8 01       	movw	r26, r16
     e6c:	18 96       	adiw	r26, 0x08	; 8
     e6e:	cd 90       	ld	r12, X+
     e70:	dd 90       	ld	r13, X+
     e72:	ed 90       	ld	r14, X+
     e74:	fc 90       	ld	r15, X
     e76:	1b 97       	sbiw	r26, 0x0b	; 11
     e78:	1c 96       	adiw	r26, 0x0c	; 12
     e7a:	8d 91       	ld	r24, X+
     e7c:	9d 91       	ld	r25, X+
     e7e:	0d 90       	ld	r0, X+
     e80:	bc 91       	ld	r27, X
     e82:	a0 2d       	mov	r26, r0
     e84:	89 8f       	std	Y+25, r24	; 0x19
     e86:	9a 8f       	std	Y+26, r25	; 0x1a
     e88:	ab 8f       	std	Y+27, r26	; 0x1b
     e8a:	bc 8f       	std	Y+28, r27	; 0x1c
     e8c:	a7 01       	movw	r20, r14
     e8e:	96 01       	movw	r18, r12
     e90:	c7 01       	movw	r24, r14
     e92:	b6 01       	movw	r22, r12
     e94:	a3 d7       	rcall	.+3910   	; 0x1ddc <__mulsf3>
     e96:	2b 01       	movw	r4, r22
     e98:	3c 01       	movw	r6, r24
     e9a:	a5 01       	movw	r20, r10
     e9c:	94 01       	movw	r18, r8
     e9e:	c5 01       	movw	r24, r10
     ea0:	b4 01       	movw	r22, r8
     ea2:	9c d7       	rcall	.+3896   	; 0x1ddc <__mulsf3>
     ea4:	9b 01       	movw	r18, r22
     ea6:	ac 01       	movw	r20, r24
     ea8:	c3 01       	movw	r24, r6
     eaa:	b2 01       	movw	r22, r4
     eac:	2e d5       	rcall	.+2652   	; 0x190a <__addsf3>
     eae:	2b 01       	movw	r4, r22
     eb0:	3c 01       	movw	r6, r24
     eb2:	29 8d       	ldd	r18, Y+25	; 0x19
     eb4:	3a 8d       	ldd	r19, Y+26	; 0x1a
     eb6:	4b 8d       	ldd	r20, Y+27	; 0x1b
     eb8:	5c 8d       	ldd	r21, Y+28	; 0x1c
     eba:	ca 01       	movw	r24, r20
     ebc:	b9 01       	movw	r22, r18
     ebe:	8e d7       	rcall	.+3868   	; 0x1ddc <__mulsf3>
     ec0:	9b 01       	movw	r18, r22
     ec2:	ac 01       	movw	r20, r24
     ec4:	c3 01       	movw	r24, r6
     ec6:	b2 01       	movw	r22, r4
     ec8:	1f d5       	rcall	.+2622   	; 0x1908 <__subsf3>
     eca:	2b 01       	movw	r4, r22
     ecc:	3c 01       	movw	r6, r24
     ece:	a7 01       	movw	r20, r14
     ed0:	96 01       	movw	r18, r12
     ed2:	c7 01       	movw	r24, r14
     ed4:	b6 01       	movw	r22, r12
     ed6:	19 d5       	rcall	.+2610   	; 0x190a <__addsf3>
     ed8:	a5 01       	movw	r20, r10
     eda:	94 01       	movw	r18, r8
     edc:	7f d7       	rcall	.+3838   	; 0x1ddc <__mulsf3>
     ede:	9b 01       	movw	r18, r22
     ee0:	ac 01       	movw	r20, r24
     ee2:	c3 01       	movw	r24, r6
     ee4:	b2 01       	movw	r22, r4
     ee6:	78 d5       	rcall	.+2800   	; 0x19d8 <__divsf3>
     ee8:	01 d5       	rcall	.+2562   	; 0x18ec <acos>
     eea:	2b 01       	movw	r4, r22
     eec:	3c 01       	movw	r6, r24
     eee:	a7 01       	movw	r20, r14
     ef0:	96 01       	movw	r18, r12
     ef2:	69 89       	ldd	r22, Y+17	; 0x11
     ef4:	7a 89       	ldd	r23, Y+18	; 0x12
     ef6:	8b 89       	ldd	r24, Y+19	; 0x13
     ef8:	9c 89       	ldd	r25, Y+20	; 0x14
     efa:	70 d7       	rcall	.+3808   	; 0x1ddc <__mulsf3>
     efc:	a5 01       	movw	r20, r10
     efe:	94 01       	movw	r18, r8
     f00:	6b d5       	rcall	.+2774   	; 0x19d8 <__divsf3>
     f02:	36 2e       	mov	r3, r22
     f04:	ab 01       	movw	r20, r22
     f06:	bc 01       	movw	r22, r24
     f08:	49 87       	std	Y+9, r20	; 0x09
     f0a:	5a 87       	std	Y+10, r21	; 0x0a
     f0c:	6b 87       	std	Y+11, r22	; 0x0b
     f0e:	7c 87       	std	Y+12, r23	; 0x0c
     f10:	a7 01       	movw	r20, r14
     f12:	96 01       	movw	r18, r12
     f14:	6d 89       	ldd	r22, Y+21	; 0x15
     f16:	7e 89       	ldd	r23, Y+22	; 0x16
     f18:	8f 89       	ldd	r24, Y+23	; 0x17
     f1a:	98 8d       	ldd	r25, Y+24	; 0x18
     f1c:	5f d7       	rcall	.+3774   	; 0x1ddc <__mulsf3>
     f1e:	a5 01       	movw	r20, r10
     f20:	94 01       	movw	r18, r8
     f22:	5a d5       	rcall	.+2740   	; 0x19d8 <__divsf3>
     f24:	e6 2f       	mov	r30, r22
     f26:	ab 01       	movw	r20, r22
     f28:	bc 01       	movw	r22, r24
     f2a:	4d 87       	std	Y+13, r20	; 0x0d
     f2c:	5e 87       	std	Y+14, r21	; 0x0e
     f2e:	6f 87       	std	Y+15, r22	; 0x0f
     f30:	78 8b       	std	Y+16, r23	; 0x10
     f32:	83 01       	movw	r16, r6
     f34:	72 01       	movw	r14, r4
     f36:	23 2d       	mov	r18, r3
     f38:	3a 85       	ldd	r19, Y+10	; 0x0a
     f3a:	4b 85       	ldd	r20, Y+11	; 0x0b
     f3c:	5c 85       	ldd	r21, Y+12	; 0x0c
     f3e:	6e 2f       	mov	r22, r30
     f40:	7e 85       	ldd	r23, Y+14	; 0x0e
     f42:	8f 85       	ldd	r24, Y+15	; 0x0f
     f44:	98 89       	ldd	r25, Y+16	; 0x10
     f46:	c4 db       	rcall	.-2168   	; 0x6d0 <rotateVector>
     f48:	29 83       	std	Y+1, r18	; 0x01
     f4a:	3a 83       	std	Y+2, r19	; 0x02
     f4c:	4b 83       	std	Y+3, r20	; 0x03
     f4e:	5c 83       	std	Y+4, r21	; 0x04
     f50:	6d 83       	std	Y+5, r22	; 0x05
     f52:	7e 83       	std	Y+6, r23	; 0x06
     f54:	8f 83       	std	Y+7, r24	; 0x07
     f56:	98 87       	std	Y+8, r25	; 0x08
     f58:	2d 81       	ldd	r18, Y+5	; 0x05
     f5a:	3e 81       	ldd	r19, Y+6	; 0x06
     f5c:	4f 81       	ldd	r20, Y+7	; 0x07
     f5e:	58 85       	ldd	r21, Y+8	; 0x08
     f60:	69 a1       	ldd	r22, Y+33	; 0x21
     f62:	7a a1       	ldd	r23, Y+34	; 0x22
     f64:	8b a1       	ldd	r24, Y+35	; 0x23
     f66:	9c a1       	ldd	r25, Y+36	; 0x24
     f68:	d0 d4       	rcall	.+2464   	; 0x190a <__addsf3>
     f6a:	4b 01       	movw	r8, r22
     f6c:	5c 01       	movw	r10, r24
     f6e:	09 e4       	ldi	r16, 0x49	; 73
     f70:	11 e0       	ldi	r17, 0x01	; 1
     f72:	29 81       	ldd	r18, Y+1	; 0x01
     f74:	3a 81       	ldd	r19, Y+2	; 0x02
     f76:	4b 81       	ldd	r20, Y+3	; 0x03
     f78:	5c 81       	ldd	r21, Y+4	; 0x04
     f7a:	6d 8d       	ldd	r22, Y+29	; 0x1d
     f7c:	7e 8d       	ldd	r23, Y+30	; 0x1e
     f7e:	8f 8d       	ldd	r24, Y+31	; 0x1f
     f80:	98 a1       	ldd	r25, Y+32	; 0x20
     f82:	c3 d4       	rcall	.+2438   	; 0x190a <__addsf3>
     f84:	21 e4       	ldi	r18, 0x41	; 65
     f86:	e2 2e       	mov	r14, r18
     f88:	21 e0       	ldi	r18, 0x01	; 1
     f8a:	f2 2e       	mov	r15, r18
     f8c:	f7 01       	movw	r30, r14
     f8e:	20 81       	ld	r18, Z
     f90:	31 81       	ldd	r19, Z+1	; 0x01
     f92:	42 81       	ldd	r20, Z+2	; 0x02
     f94:	53 81       	ldd	r21, Z+3	; 0x03
     f96:	b8 d4       	rcall	.+2416   	; 0x1908 <__subsf3>
     f98:	dc 01       	movw	r26, r24
     f9a:	cb 01       	movw	r24, r22
     f9c:	b0 58       	subi	r27, 0x80	; 128
     f9e:	f8 01       	movw	r30, r16
     fa0:	80 83       	st	Z, r24
     fa2:	91 83       	std	Z+1, r25	; 0x01
     fa4:	a2 83       	std	Z+2, r26	; 0x02
     fa6:	b3 83       	std	Z+3, r27	; 0x03
     fa8:	d7 01       	movw	r26, r14
     faa:	14 96       	adiw	r26, 0x04	; 4
     fac:	2d 91       	ld	r18, X+
     fae:	3d 91       	ld	r19, X+
     fb0:	4d 91       	ld	r20, X+
     fb2:	5c 91       	ld	r21, X
     fb4:	17 97       	sbiw	r26, 0x07	; 7
     fb6:	c5 01       	movw	r24, r10
     fb8:	b4 01       	movw	r22, r8
     fba:	a6 d4       	rcall	.+2380   	; 0x1908 <__subsf3>
     fbc:	f8 01       	movw	r30, r16
     fbe:	64 83       	std	Z+4, r22	; 0x04
     fc0:	75 83       	std	Z+5, r23	; 0x05
     fc2:	86 83       	std	Z+6, r24	; 0x06
     fc4:	97 83       	std	Z+7, r25	; 0x07
     fc6:	a4 96       	adiw	r28, 0x24	; 36
     fc8:	0f b6       	in	r0, 0x3f	; 63
     fca:	f8 94       	cli
     fcc:	de bf       	out	0x3e, r29	; 62
     fce:	0f be       	out	0x3f, r0	; 63
     fd0:	cd bf       	out	0x3d, r28	; 61
     fd2:	df 91       	pop	r29
     fd4:	cf 91       	pop	r28
     fd6:	1f 91       	pop	r17
     fd8:	0f 91       	pop	r16
     fda:	ff 90       	pop	r15
     fdc:	ef 90       	pop	r14
     fde:	df 90       	pop	r13
     fe0:	cf 90       	pop	r12
     fe2:	bf 90       	pop	r11
     fe4:	af 90       	pop	r10
     fe6:	9f 90       	pop	r9
     fe8:	8f 90       	pop	r8
     fea:	7f 90       	pop	r7
     fec:	6f 90       	pop	r6
     fee:	5f 90       	pop	r5
     ff0:	4f 90       	pop	r4
     ff2:	3f 90       	pop	r3
     ff4:	08 95       	ret

00000ff6 <__vector_28>:
     ff6:	1f 92       	push	r1
     ff8:	0f 92       	push	r0
     ffa:	0f b6       	in	r0, 0x3f	; 63
     ffc:	0f 92       	push	r0
     ffe:	11 24       	eor	r1, r1
    1000:	0b b6       	in	r0, 0x3b	; 59
    1002:	0f 92       	push	r0
    1004:	2f 93       	push	r18
    1006:	3f 93       	push	r19
    1008:	4f 93       	push	r20
    100a:	5f 93       	push	r21
    100c:	6f 93       	push	r22
    100e:	7f 93       	push	r23
    1010:	8f 93       	push	r24
    1012:	9f 93       	push	r25
    1014:	af 93       	push	r26
    1016:	bf 93       	push	r27
    1018:	ef 93       	push	r30
    101a:	ff 93       	push	r31
    101c:	80 91 c8 00 	lds	r24, 0x00C8	; 0x8000c8 <__TEXT_REGION_LENGTH__+0x7e00c8>
    1020:	87 ff       	sbrs	r24, 7
    1022:	fc cf       	rjmp	.-8      	; 0x101c <__EEPROM_REGION_LENGTH__+0x1c>
    1024:	80 91 ce 00 	lds	r24, 0x00CE	; 0x8000ce <__TEXT_REGION_LENGTH__+0x7e00ce>
    1028:	85 35       	cpi	r24, 0x55	; 85
    102a:	a1 f0       	breq	.+40     	; 0x1054 <__EEPROM_REGION_LENGTH__+0x54>
    102c:	47 9a       	sbi	0x08, 7	; 8
    102e:	ff 91       	pop	r31
    1030:	ef 91       	pop	r30
    1032:	bf 91       	pop	r27
    1034:	af 91       	pop	r26
    1036:	9f 91       	pop	r25
    1038:	8f 91       	pop	r24
    103a:	7f 91       	pop	r23
    103c:	6f 91       	pop	r22
    103e:	5f 91       	pop	r21
    1040:	4f 91       	pop	r20
    1042:	3f 91       	pop	r19
    1044:	2f 91       	pop	r18
    1046:	0f 90       	pop	r0
    1048:	0b be       	out	0x3b, r0	; 59
    104a:	0f 90       	pop	r0
    104c:	0f be       	out	0x3f, r0	; 63
    104e:	0f 90       	pop	r0
    1050:	1f 90       	pop	r1
    1052:	18 95       	reti
    1054:	80 91 c8 00 	lds	r24, 0x00C8	; 0x8000c8 <__TEXT_REGION_LENGTH__+0x7e00c8>
    1058:	87 ff       	sbrs	r24, 7
    105a:	fc cf       	rjmp	.-8      	; 0x1054 <__EEPROM_REGION_LENGTH__+0x54>
    105c:	80 91 ce 00 	lds	r24, 0x00CE	; 0x8000ce <__TEXT_REGION_LENGTH__+0x7e00ce>
    1060:	98 2f       	mov	r25, r24
    1062:	9f 70       	andi	r25, 0x0F	; 15
    1064:	96 30       	cpi	r25, 0x06	; 6
    1066:	11 f0       	breq	.+4      	; 0x106c <__EEPROM_REGION_LENGTH__+0x6c>
    1068:	91 11       	cpse	r25, r1
    106a:	e0 cf       	rjmp	.-64     	; 0x102c <__EEPROM_REGION_LENGTH__+0x2c>
    106c:	47 98       	cbi	0x08, 7	; 8
    106e:	80 7f       	andi	r24, 0xF0	; 240
    1070:	80 35       	cpi	r24, 0x50	; 80
    1072:	09 f4       	brne	.+2      	; 0x1076 <__EEPROM_REGION_LENGTH__+0x76>
    1074:	cd c0       	rjmp	.+410    	; 0x1210 <__EEPROM_REGION_LENGTH__+0x210>
    1076:	10 f1       	brcs	.+68     	; 0x10bc <__EEPROM_REGION_LENGTH__+0xbc>
    1078:	80 3b       	cpi	r24, 0xB0	; 176
    107a:	09 f4       	brne	.+2      	; 0x107e <__EEPROM_REGION_LENGTH__+0x7e>
    107c:	f7 c0       	rjmp	.+494    	; 0x126c <__EEPROM_REGION_LENGTH__+0x26c>
    107e:	b8 f5       	brcc	.+110    	; 0x10ee <__EEPROM_REGION_LENGTH__+0xee>
    1080:	80 37       	cpi	r24, 0x70	; 112
    1082:	09 f4       	brne	.+2      	; 0x1086 <__EEPROM_REGION_LENGTH__+0x86>
    1084:	a2 c0       	rjmp	.+324    	; 0x11ca <__EEPROM_REGION_LENGTH__+0x1ca>
    1086:	80 38       	cpi	r24, 0x80	; 128
    1088:	89 f6       	brne	.-94     	; 0x102c <__EEPROM_REGION_LENGTH__+0x2c>
    108a:	ed eb       	ldi	r30, 0xBD	; 189
    108c:	f1 e0       	ldi	r31, 0x01	; 1
    108e:	43 ec       	ldi	r20, 0xC3	; 195
    1090:	51 e0       	ldi	r21, 0x01	; 1
    1092:	80 91 c8 00 	lds	r24, 0x00C8	; 0x8000c8 <__TEXT_REGION_LENGTH__+0x7e00c8>
    1096:	87 ff       	sbrs	r24, 7
    1098:	fc cf       	rjmp	.-8      	; 0x1092 <__EEPROM_REGION_LENGTH__+0x92>
    109a:	90 91 ce 00 	lds	r25, 0x00CE	; 0x8000ce <__TEXT_REGION_LENGTH__+0x7e00ce>
    109e:	80 91 c8 00 	lds	r24, 0x00C8	; 0x8000c8 <__TEXT_REGION_LENGTH__+0x7e00c8>
    10a2:	87 ff       	sbrs	r24, 7
    10a4:	fc cf       	rjmp	.-8      	; 0x109e <__EEPROM_REGION_LENGTH__+0x9e>
    10a6:	20 91 ce 00 	lds	r18, 0x00CE	; 0x8000ce <__TEXT_REGION_LENGTH__+0x7e00ce>
    10aa:	89 2f       	mov	r24, r25
    10ac:	90 e0       	ldi	r25, 0x00	; 0
    10ae:	92 2b       	or	r25, r18
    10b0:	81 93       	st	Z+, r24
    10b2:	91 93       	st	Z+, r25
    10b4:	4e 17       	cp	r20, r30
    10b6:	5f 07       	cpc	r21, r31
    10b8:	61 f7       	brne	.-40     	; 0x1092 <__EEPROM_REGION_LENGTH__+0x92>
    10ba:	b8 cf       	rjmp	.-144    	; 0x102c <__EEPROM_REGION_LENGTH__+0x2c>
    10bc:	80 31       	cpi	r24, 0x10	; 16
    10be:	09 f4       	brne	.+2      	; 0x10c2 <__EEPROM_REGION_LENGTH__+0xc2>
    10c0:	c7 c0       	rjmp	.+398    	; 0x1250 <__EEPROM_REGION_LENGTH__+0x250>
    10c2:	08 f4       	brcc	.+2      	; 0x10c6 <__EEPROM_REGION_LENGTH__+0xc6>
    10c4:	94 c0       	rjmp	.+296    	; 0x11ee <__EEPROM_REGION_LENGTH__+0x1ee>
    10c6:	80 32       	cpi	r24, 0x20	; 32
    10c8:	09 f4       	brne	.+2      	; 0x10cc <__EEPROM_REGION_LENGTH__+0xcc>
    10ca:	83 c0       	rjmp	.+262    	; 0x11d2 <__EEPROM_REGION_LENGTH__+0x1d2>
    10cc:	80 33       	cpi	r24, 0x30	; 48
    10ce:	09 f0       	breq	.+2      	; 0x10d2 <__EEPROM_REGION_LENGTH__+0xd2>
    10d0:	ad cf       	rjmp	.-166    	; 0x102c <__EEPROM_REGION_LENGTH__+0x2c>
    10d2:	e5 e7       	ldi	r30, 0x75	; 117
    10d4:	f1 e0       	ldi	r31, 0x01	; 1
    10d6:	91 91       	ld	r25, Z+
    10d8:	80 91 c8 00 	lds	r24, 0x00C8	; 0x8000c8 <__TEXT_REGION_LENGTH__+0x7e00c8>
    10dc:	85 ff       	sbrs	r24, 5
    10de:	fc cf       	rjmp	.-8      	; 0x10d8 <__EEPROM_REGION_LENGTH__+0xd8>
    10e0:	90 93 ce 00 	sts	0x00CE, r25	; 0x8000ce <__TEXT_REGION_LENGTH__+0x7e00ce>
    10e4:	81 e0       	ldi	r24, 0x01	; 1
    10e6:	eb 37       	cpi	r30, 0x7B	; 123
    10e8:	f8 07       	cpc	r31, r24
    10ea:	a9 f7       	brne	.-22     	; 0x10d6 <__EEPROM_REGION_LENGTH__+0xd6>
    10ec:	9f cf       	rjmp	.-194    	; 0x102c <__EEPROM_REGION_LENGTH__+0x2c>
    10ee:	80 3c       	cpi	r24, 0xC0	; 192
    10f0:	91 f0       	breq	.+36     	; 0x1116 <__EEPROM_REGION_LENGTH__+0x116>
    10f2:	80 3d       	cpi	r24, 0xD0	; 208
    10f4:	09 f0       	breq	.+2      	; 0x10f8 <__EEPROM_REGION_LENGTH__+0xf8>
    10f6:	9a cf       	rjmp	.-204    	; 0x102c <__EEPROM_REGION_LENGTH__+0x2c>
    10f8:	81 e0       	ldi	r24, 0x01	; 1
    10fa:	90 e0       	ldi	r25, 0x00	; 0
    10fc:	20 91 3e 01 	lds	r18, 0x013E	; 0x80013e <mode_switch>
    1100:	30 91 3f 01 	lds	r19, 0x013F	; 0x80013f <mode_switch+0x1>
    1104:	23 2b       	or	r18, r19
    1106:	11 f0       	breq	.+4      	; 0x110c <__EEPROM_REGION_LENGTH__+0x10c>
    1108:	80 e0       	ldi	r24, 0x00	; 0
    110a:	90 e0       	ldi	r25, 0x00	; 0
    110c:	90 93 3f 01 	sts	0x013F, r25	; 0x80013f <mode_switch+0x1>
    1110:	80 93 3e 01 	sts	0x013E, r24	; 0x80013e <mode_switch>
    1114:	8b cf       	rjmp	.-234    	; 0x102c <__EEPROM_REGION_LENGTH__+0x2c>
    1116:	80 91 c8 00 	lds	r24, 0x00C8	; 0x8000c8 <__TEXT_REGION_LENGTH__+0x7e00c8>
    111a:	87 ff       	sbrs	r24, 7
    111c:	fc cf       	rjmp	.-8      	; 0x1116 <__EEPROM_REGION_LENGTH__+0x116>
    111e:	80 91 ce 00 	lds	r24, 0x00CE	; 0x8000ce <__TEXT_REGION_LENGTH__+0x7e00ce>
    1122:	90 e0       	ldi	r25, 0x00	; 0
    1124:	90 93 a6 01 	sts	0x01A6, r25	; 0x8001a6 <thisVoltage+0x1>
    1128:	80 93 a5 01 	sts	0x01A5, r24	; 0x8001a5 <thisVoltage>
    112c:	80 91 c8 00 	lds	r24, 0x00C8	; 0x8000c8 <__TEXT_REGION_LENGTH__+0x7e00c8>
    1130:	87 ff       	sbrs	r24, 7
    1132:	fc cf       	rjmp	.-8      	; 0x112c <__EEPROM_REGION_LENGTH__+0x12c>
    1134:	80 91 ce 00 	lds	r24, 0x00CE	; 0x8000ce <__TEXT_REGION_LENGTH__+0x7e00ce>
    1138:	90 e0       	ldi	r25, 0x00	; 0
    113a:	90 93 a8 01 	sts	0x01A8, r25	; 0x8001a8 <thisVoltage+0x3>
    113e:	80 93 a7 01 	sts	0x01A7, r24	; 0x8001a7 <thisVoltage+0x2>
    1142:	80 91 c8 00 	lds	r24, 0x00C8	; 0x8000c8 <__TEXT_REGION_LENGTH__+0x7e00c8>
    1146:	87 ff       	sbrs	r24, 7
    1148:	fc cf       	rjmp	.-8      	; 0x1142 <__EEPROM_REGION_LENGTH__+0x142>
    114a:	80 91 ce 00 	lds	r24, 0x00CE	; 0x8000ce <__TEXT_REGION_LENGTH__+0x7e00ce>
    114e:	90 e0       	ldi	r25, 0x00	; 0
    1150:	90 93 aa 01 	sts	0x01AA, r25	; 0x8001aa <thisVoltage+0x5>
    1154:	80 93 a9 01 	sts	0x01A9, r24	; 0x8001a9 <thisVoltage+0x4>
    1158:	80 91 c8 00 	lds	r24, 0x00C8	; 0x8000c8 <__TEXT_REGION_LENGTH__+0x7e00c8>
    115c:	87 ff       	sbrs	r24, 7
    115e:	fc cf       	rjmp	.-8      	; 0x1158 <__EEPROM_REGION_LENGTH__+0x158>
    1160:	80 91 ce 00 	lds	r24, 0x00CE	; 0x8000ce <__TEXT_REGION_LENGTH__+0x7e00ce>
    1164:	90 e0       	ldi	r25, 0x00	; 0
    1166:	90 93 ac 01 	sts	0x01AC, r25	; 0x8001ac <thisVoltage+0x7>
    116a:	80 93 ab 01 	sts	0x01AB, r24	; 0x8001ab <thisVoltage+0x6>
    116e:	80 91 c8 00 	lds	r24, 0x00C8	; 0x8000c8 <__TEXT_REGION_LENGTH__+0x7e00c8>
    1172:	87 ff       	sbrs	r24, 7
    1174:	fc cf       	rjmp	.-8      	; 0x116e <__EEPROM_REGION_LENGTH__+0x16e>
    1176:	80 91 ce 00 	lds	r24, 0x00CE	; 0x8000ce <__TEXT_REGION_LENGTH__+0x7e00ce>
    117a:	90 e0       	ldi	r25, 0x00	; 0
    117c:	90 93 ae 01 	sts	0x01AE, r25	; 0x8001ae <thisVoltage+0x9>
    1180:	80 93 ad 01 	sts	0x01AD, r24	; 0x8001ad <thisVoltage+0x8>
    1184:	80 91 c8 00 	lds	r24, 0x00C8	; 0x8000c8 <__TEXT_REGION_LENGTH__+0x7e00c8>
    1188:	87 ff       	sbrs	r24, 7
    118a:	fc cf       	rjmp	.-8      	; 0x1184 <__EEPROM_REGION_LENGTH__+0x184>
    118c:	80 91 ce 00 	lds	r24, 0x00CE	; 0x8000ce <__TEXT_REGION_LENGTH__+0x7e00ce>
    1190:	90 e0       	ldi	r25, 0x00	; 0
    1192:	90 93 b0 01 	sts	0x01B0, r25	; 0x8001b0 <thisVoltage+0xb>
    1196:	80 93 af 01 	sts	0x01AF, r24	; 0x8001af <thisVoltage+0xa>
    119a:	dc d8       	rcall	.-3656   	; 0x354 <applyPulse>
    119c:	80 91 b1 01 	lds	r24, 0x01B1	; 0x8001b1 <tempVoltage>
    11a0:	80 93 88 00 	sts	0x0088, r24	; 0x800088 <__TEXT_REGION_LENGTH__+0x7e0088>
    11a4:	80 91 b3 01 	lds	r24, 0x01B3	; 0x8001b3 <tempVoltage+0x2>
    11a8:	80 93 8a 00 	sts	0x008A, r24	; 0x80008a <__TEXT_REGION_LENGTH__+0x7e008a>
    11ac:	80 91 b5 01 	lds	r24, 0x01B5	; 0x8001b5 <tempVoltage+0x4>
    11b0:	87 bd       	out	0x27, r24	; 39
    11b2:	80 91 b7 01 	lds	r24, 0x01B7	; 0x8001b7 <tempVoltage+0x6>
    11b6:	88 bd       	out	0x28, r24	; 40
    11b8:	80 91 b9 01 	lds	r24, 0x01B9	; 0x8001b9 <tempVoltage+0x8>
    11bc:	80 93 b3 00 	sts	0x00B3, r24	; 0x8000b3 <__TEXT_REGION_LENGTH__+0x7e00b3>
    11c0:	80 91 bb 01 	lds	r24, 0x01BB	; 0x8001bb <tempVoltage+0xa>
    11c4:	80 93 b4 00 	sts	0x00B4, r24	; 0x8000b4 <__TEXT_REGION_LENGTH__+0x7e00b4>
    11c8:	31 cf       	rjmp	.-414    	; 0x102c <__EEPROM_REGION_LENGTH__+0x2c>
    11ca:	81 e0       	ldi	r24, 0x01	; 1
    11cc:	80 93 40 01 	sts	0x0140, r24	; 0x800140 <start>
    11d0:	2d cf       	rjmp	.-422    	; 0x102c <__EEPROM_REGION_LENGTH__+0x2c>
    11d2:	ef e6       	ldi	r30, 0x6F	; 111
    11d4:	f1 e0       	ldi	r31, 0x01	; 1
    11d6:	91 91       	ld	r25, Z+
    11d8:	80 91 c8 00 	lds	r24, 0x00C8	; 0x8000c8 <__TEXT_REGION_LENGTH__+0x7e00c8>
    11dc:	85 ff       	sbrs	r24, 5
    11de:	fc cf       	rjmp	.-8      	; 0x11d8 <__EEPROM_REGION_LENGTH__+0x1d8>
    11e0:	90 93 ce 00 	sts	0x00CE, r25	; 0x8000ce <__TEXT_REGION_LENGTH__+0x7e00ce>
    11e4:	81 e0       	ldi	r24, 0x01	; 1
    11e6:	e5 37       	cpi	r30, 0x75	; 117
    11e8:	f8 07       	cpc	r31, r24
    11ea:	a9 f7       	brne	.-22     	; 0x11d6 <__EEPROM_REGION_LENGTH__+0x1d6>
    11ec:	1f cf       	rjmp	.-450    	; 0x102c <__EEPROM_REGION_LENGTH__+0x2c>
    11ee:	81 11       	cpse	r24, r1
    11f0:	1d cf       	rjmp	.-454    	; 0x102c <__EEPROM_REGION_LENGTH__+0x2c>
    11f2:	ed eb       	ldi	r30, 0xBD	; 189
    11f4:	f1 e0       	ldi	r31, 0x01	; 1
    11f6:	23 ec       	ldi	r18, 0xC3	; 195
    11f8:	31 e0       	ldi	r19, 0x01	; 1
    11fa:	91 91       	ld	r25, Z+
    11fc:	80 91 c8 00 	lds	r24, 0x00C8	; 0x8000c8 <__TEXT_REGION_LENGTH__+0x7e00c8>
    1200:	85 ff       	sbrs	r24, 5
    1202:	fc cf       	rjmp	.-8      	; 0x11fc <__EEPROM_REGION_LENGTH__+0x1fc>
    1204:	90 93 ce 00 	sts	0x00CE, r25	; 0x8000ce <__TEXT_REGION_LENGTH__+0x7e00ce>
    1208:	2e 17       	cp	r18, r30
    120a:	3f 07       	cpc	r19, r31
    120c:	b1 f7       	brne	.-20     	; 0x11fa <__EEPROM_REGION_LENGTH__+0x1fa>
    120e:	0e cf       	rjmp	.-484    	; 0x102c <__EEPROM_REGION_LENGTH__+0x2c>
    1210:	60 91 5e 01 	lds	r22, 0x015E	; 0x80015e <daGlobal>
    1214:	70 91 5f 01 	lds	r23, 0x015F	; 0x80015f <daGlobal+0x1>
    1218:	80 91 60 01 	lds	r24, 0x0160	; 0x800160 <daGlobal+0x2>
    121c:	90 91 61 01 	lds	r25, 0x0161	; 0x800161 <daGlobal+0x3>
    1220:	43 d4       	rcall	.+2182   	; 0x1aa8 <__fixsfsi>
    1222:	70 93 39 01 	sts	0x0139, r23	; 0x800139 <send_data+0x1>
    1226:	60 93 38 01 	sts	0x0138, r22	; 0x800138 <send_data>
    122a:	70 93 3b 01 	sts	0x013B, r23	; 0x80013b <send_data+0x3>
    122e:	60 93 3a 01 	sts	0x013A, r22	; 0x80013a <send_data+0x2>
    1232:	e8 e3       	ldi	r30, 0x38	; 56
    1234:	f1 e0       	ldi	r31, 0x01	; 1
    1236:	2e e3       	ldi	r18, 0x3E	; 62
    1238:	31 e0       	ldi	r19, 0x01	; 1
    123a:	91 91       	ld	r25, Z+
    123c:	80 91 c8 00 	lds	r24, 0x00C8	; 0x8000c8 <__TEXT_REGION_LENGTH__+0x7e00c8>
    1240:	85 ff       	sbrs	r24, 5
    1242:	fc cf       	rjmp	.-8      	; 0x123c <__EEPROM_REGION_LENGTH__+0x23c>
    1244:	90 93 ce 00 	sts	0x00CE, r25	; 0x8000ce <__TEXT_REGION_LENGTH__+0x7e00ce>
    1248:	2e 17       	cp	r18, r30
    124a:	3f 07       	cpc	r19, r31
    124c:	b1 f7       	brne	.-20     	; 0x123a <__EEPROM_REGION_LENGTH__+0x23a>
    124e:	ee ce       	rjmp	.-548    	; 0x102c <__EEPROM_REGION_LENGTH__+0x2c>
    1250:	e3 e6       	ldi	r30, 0x63	; 99
    1252:	f1 e0       	ldi	r31, 0x01	; 1
    1254:	91 91       	ld	r25, Z+
    1256:	80 91 c8 00 	lds	r24, 0x00C8	; 0x8000c8 <__TEXT_REGION_LENGTH__+0x7e00c8>
    125a:	85 ff       	sbrs	r24, 5
    125c:	fc cf       	rjmp	.-8      	; 0x1256 <__EEPROM_REGION_LENGTH__+0x256>
    125e:	90 93 ce 00 	sts	0x00CE, r25	; 0x8000ce <__TEXT_REGION_LENGTH__+0x7e00ce>
    1262:	81 e0       	ldi	r24, 0x01	; 1
    1264:	e9 36       	cpi	r30, 0x69	; 105
    1266:	f8 07       	cpc	r31, r24
    1268:	a9 f7       	brne	.-22     	; 0x1254 <__EEPROM_REGION_LENGTH__+0x254>
    126a:	e0 ce       	rjmp	.-576    	; 0x102c <__EEPROM_REGION_LENGTH__+0x2c>
    126c:	e9 e6       	ldi	r30, 0x69	; 105
    126e:	f1 e0       	ldi	r31, 0x01	; 1
    1270:	4f e6       	ldi	r20, 0x6F	; 111
    1272:	51 e0       	ldi	r21, 0x01	; 1
    1274:	80 91 c8 00 	lds	r24, 0x00C8	; 0x8000c8 <__TEXT_REGION_LENGTH__+0x7e00c8>
    1278:	87 ff       	sbrs	r24, 7
    127a:	fc cf       	rjmp	.-8      	; 0x1274 <__EEPROM_REGION_LENGTH__+0x274>
    127c:	90 91 ce 00 	lds	r25, 0x00CE	; 0x8000ce <__TEXT_REGION_LENGTH__+0x7e00ce>
    1280:	80 91 c8 00 	lds	r24, 0x00C8	; 0x8000c8 <__TEXT_REGION_LENGTH__+0x7e00c8>
    1284:	87 ff       	sbrs	r24, 7
    1286:	fc cf       	rjmp	.-8      	; 0x1280 <__EEPROM_REGION_LENGTH__+0x280>
    1288:	20 91 ce 00 	lds	r18, 0x00CE	; 0x8000ce <__TEXT_REGION_LENGTH__+0x7e00ce>
    128c:	89 2f       	mov	r24, r25
    128e:	90 e0       	ldi	r25, 0x00	; 0
    1290:	92 2b       	or	r25, r18
    1292:	81 93       	st	Z+, r24
    1294:	91 93       	st	Z+, r25
    1296:	4e 17       	cp	r20, r30
    1298:	5f 07       	cpc	r21, r31
    129a:	61 f7       	brne	.-40     	; 0x1274 <__EEPROM_REGION_LENGTH__+0x274>
    129c:	c7 ce       	rjmp	.-626    	; 0x102c <__EEPROM_REGION_LENGTH__+0x2c>

0000129e <runTWI>:
    129e:	54 d2       	rcall	.+1192   	; 0x1748 <TWI_Transceiver_Busy>
    12a0:	81 11       	cpse	r24, r1
    12a2:	09 c0       	rjmp	.+18     	; 0x12b6 <runTWI+0x18>
    12a4:	80 91 56 01 	lds	r24, 0x0156	; 0x800156 <TWI_statusReg>
    12a8:	80 ff       	sbrs	r24, 0
    12aa:	06 c0       	rjmp	.+12     	; 0x12b8 <runTWI+0x1a>
    12ac:	81 fd       	sbrc	r24, 1
    12ae:	07 c0       	rjmp	.+14     	; 0x12be <runTWI+0x20>
    12b0:	4b d2       	rcall	.+1174   	; 0x1748 <TWI_Transceiver_Busy>
    12b2:	88 23       	and	r24, r24
    12b4:	19 f0       	breq	.+6      	; 0x12bc <runTWI+0x1e>
    12b6:	08 95       	ret
    12b8:	4a d2       	rcall	.+1172   	; 0x174e <TWI_Get_State_Info>
    12ba:	50 c2       	rjmp	.+1184   	; 0x175c <TWI_Start_Transceiver>
    12bc:	4f c2       	rjmp	.+1182   	; 0x175c <TWI_Start_Transceiver>
    12be:	64 e0       	ldi	r22, 0x04	; 4
    12c0:	8b e7       	ldi	r24, 0x7B	; 123
    12c2:	91 e0       	ldi	r25, 0x01	; 1
    12c4:	5b d2       	rcall	.+1206   	; 0x177c <TWI_Get_Data_From_Transceiver>
    12c6:	10 92 7f 01 	sts	0x017F, r1	; 0x80017f <message_buf+0x4>
    12ca:	8b e7       	ldi	r24, 0x7B	; 123
    12cc:	91 e0       	ldi	r25, 0x01	; 1
    12ce:	92 d6       	rcall	.+3364   	; 0x1ff4 <atoi>
    12d0:	90 93 01 01 	sts	0x0101, r25	; 0x800101 <__DATA_REGION_ORIGIN__+0x1>
    12d4:	80 93 00 01 	sts	0x0100, r24	; 0x800100 <__DATA_REGION_ORIGIN__>
    12d8:	eb cf       	rjmp	.-42     	; 0x12b0 <runTWI+0x12>

000012da <sendMotor>:
    12da:	2f 92       	push	r2
    12dc:	3f 92       	push	r3
    12de:	4f 92       	push	r4
    12e0:	5f 92       	push	r5
    12e2:	6f 92       	push	r6
    12e4:	7f 92       	push	r7
    12e6:	8f 92       	push	r8
    12e8:	9f 92       	push	r9
    12ea:	af 92       	push	r10
    12ec:	bf 92       	push	r11
    12ee:	cf 92       	push	r12
    12f0:	df 92       	push	r13
    12f2:	ef 92       	push	r14
    12f4:	ff 92       	push	r15
    12f6:	0f 93       	push	r16
    12f8:	1f 93       	push	r17
    12fa:	cf 93       	push	r28
    12fc:	df 93       	push	r29
    12fe:	cd b7       	in	r28, 0x3d	; 61
    1300:	de b7       	in	r29, 0x3e	; 62
    1302:	64 97       	sbiw	r28, 0x14	; 20
    1304:	0f b6       	in	r0, 0x3f	; 63
    1306:	f8 94       	cli
    1308:	de bf       	out	0x3e, r29	; 62
    130a:	0f be       	out	0x3f, r0	; 63
    130c:	cd bf       	out	0x3d, r28	; 61
    130e:	19 82       	std	Y+1, r1	; 0x01
    1310:	1a 82       	std	Y+2, r1	; 0x02
    1312:	1b 82       	std	Y+3, r1	; 0x03
    1314:	1c 82       	std	Y+4, r1	; 0x04
    1316:	1d 82       	std	Y+5, r1	; 0x05
    1318:	1e 82       	std	Y+6, r1	; 0x06
    131a:	1f 82       	std	Y+7, r1	; 0x07
    131c:	18 86       	std	Y+8, r1	; 0x08
    131e:	19 86       	std	Y+9, r1	; 0x09
    1320:	1a 86       	std	Y+10, r1	; 0x0a
    1322:	1b 86       	std	Y+11, r1	; 0x0b
    1324:	1c 86       	std	Y+12, r1	; 0x0c
    1326:	20 91 4d 01 	lds	r18, 0x014D	; 0x80014d <EE+0x4>
    132a:	30 91 4e 01 	lds	r19, 0x014E	; 0x80014e <EE+0x5>
    132e:	40 91 4f 01 	lds	r20, 0x014F	; 0x80014f <EE+0x6>
    1332:	50 91 50 01 	lds	r21, 0x0150	; 0x800150 <EE+0x7>
    1336:	60 91 49 01 	lds	r22, 0x0149	; 0x800149 <EE>
    133a:	70 91 4a 01 	lds	r23, 0x014A	; 0x80014a <EE+0x1>
    133e:	80 91 4b 01 	lds	r24, 0x014B	; 0x80014b <EE+0x2>
    1342:	90 91 4c 01 	lds	r25, 0x014C	; 0x80014c <EE+0x3>
    1346:	01 e8       	ldi	r16, 0x81	; 129
    1348:	11 e0       	ldi	r17, 0x01	; 1
    134a:	66 d8       	rcall	.-3892   	; 0x418 <calculateJacobian>
    134c:	ce 01       	movw	r24, r28
    134e:	01 96       	adiw	r24, 0x01	; 1
    1350:	1c 01       	movw	r2, r24
    1352:	48 01       	movw	r8, r16
    1354:	fe 01       	movw	r30, r28
    1356:	3d 96       	adiw	r30, 0x0d	; 13
    1358:	fc 8b       	std	Y+20, r31	; 0x14
    135a:	eb 8b       	std	Y+19, r30	; 0x13
    135c:	7c 01       	movw	r14, r24
    135e:	41 2c       	mov	r4, r1
    1360:	51 2c       	mov	r5, r1
    1362:	32 01       	movw	r6, r4
    1364:	88 e3       	ldi	r24, 0x38	; 56
    1366:	a8 2e       	mov	r10, r24
    1368:	81 e0       	ldi	r24, 0x01	; 1
    136a:	b8 2e       	mov	r11, r24
    136c:	0c e2       	ldi	r16, 0x2C	; 44
    136e:	11 e0       	ldi	r17, 0x01	; 1
    1370:	64 01       	movw	r12, r8
    1372:	f6 01       	movw	r30, r12
    1374:	61 91       	ld	r22, Z+
    1376:	71 91       	ld	r23, Z+
    1378:	81 91       	ld	r24, Z+
    137a:	91 91       	ld	r25, Z+
    137c:	6f 01       	movw	r12, r30
    137e:	f8 01       	movw	r30, r16
    1380:	21 91       	ld	r18, Z+
    1382:	31 91       	ld	r19, Z+
    1384:	41 91       	ld	r20, Z+
    1386:	51 91       	ld	r21, Z+
    1388:	8f 01       	movw	r16, r30
    138a:	28 d5       	rcall	.+2640   	; 0x1ddc <__mulsf3>
    138c:	9b 01       	movw	r18, r22
    138e:	ac 01       	movw	r20, r24
    1390:	c3 01       	movw	r24, r6
    1392:	b2 01       	movw	r22, r4
    1394:	ba d2       	rcall	.+1396   	; 0x190a <__addsf3>
    1396:	2b 01       	movw	r4, r22
    1398:	3c 01       	movw	r6, r24
    139a:	a0 16       	cp	r10, r16
    139c:	b1 06       	cpc	r11, r17
    139e:	49 f7       	brne	.-46     	; 0x1372 <sendMotor+0x98>
    13a0:	f7 01       	movw	r30, r14
    13a2:	61 93       	st	Z+, r22
    13a4:	71 93       	st	Z+, r23
    13a6:	81 93       	st	Z+, r24
    13a8:	91 93       	st	Z+, r25
    13aa:	7f 01       	movw	r14, r30
    13ac:	fc e0       	ldi	r31, 0x0C	; 12
    13ae:	8f 0e       	add	r8, r31
    13b0:	91 1c       	adc	r9, r1
    13b2:	8b 89       	ldd	r24, Y+19	; 0x13
    13b4:	9c 89       	ldd	r25, Y+20	; 0x14
    13b6:	e8 16       	cp	r14, r24
    13b8:	f9 06       	cpc	r15, r25
    13ba:	31 f0       	breq	.+12     	; 0x13c8 <sendMotor+0xee>
    13bc:	f7 01       	movw	r30, r14
    13be:	40 80       	ld	r4, Z
    13c0:	51 80       	ldd	r5, Z+1	; 0x01
    13c2:	62 80       	ldd	r6, Z+2	; 0x02
    13c4:	73 80       	ldd	r7, Z+3	; 0x03
    13c6:	d2 cf       	rjmp	.-92     	; 0x136c <sendMotor+0x92>
    13c8:	8e 01       	movw	r16, r28
    13ca:	0d 5e       	subi	r16, 0xED	; 237
    13cc:	1f 4f       	sbci	r17, 0xFF	; 255
    13ce:	f1 01       	movw	r30, r2
    13d0:	61 91       	ld	r22, Z+
    13d2:	71 91       	ld	r23, Z+
    13d4:	81 91       	ld	r24, Z+
    13d6:	91 91       	ld	r25, Z+
    13d8:	1f 01       	movw	r2, r30
    13da:	63 d5       	rcall	.+2758   	; 0x1ea2 <round>
    13dc:	65 d3       	rcall	.+1738   	; 0x1aa8 <__fixsfsi>
    13de:	6f 3f       	cpi	r22, 0xFF	; 255
    13e0:	71 05       	cpc	r23, r1
    13e2:	11 f0       	breq	.+4      	; 0x13e8 <sendMotor+0x10e>
    13e4:	0c f0       	brlt	.+2      	; 0x13e8 <sendMotor+0x10e>
    13e6:	5d c0       	rjmp	.+186    	; 0x14a2 <sendMotor+0x1c8>
    13e8:	61 30       	cpi	r22, 0x01	; 1
    13ea:	ff ef       	ldi	r31, 0xFF	; 255
    13ec:	7f 07       	cpc	r23, r31
    13ee:	0c f4       	brge	.+2      	; 0x13f2 <sendMotor+0x118>
    13f0:	5a c0       	rjmp	.+180    	; 0x14a6 <sendMotor+0x1cc>
    13f2:	77 fd       	sbrc	r23, 7
    13f4:	5d c0       	rjmp	.+186    	; 0x14b0 <sendMotor+0x1d6>
    13f6:	f7 01       	movw	r30, r14
    13f8:	10 82       	st	Z, r1
    13fa:	61 83       	std	Z+1, r22	; 0x01
    13fc:	f2 e0       	ldi	r31, 0x02	; 2
    13fe:	ef 0e       	add	r14, r31
    1400:	f1 1c       	adc	r15, r1
    1402:	0e 15       	cp	r16, r14
    1404:	1f 05       	cpc	r17, r15
    1406:	19 f7       	brne	.-58     	; 0x13ce <sendMotor+0xf4>
    1408:	2d 85       	ldd	r18, Y+13	; 0x0d
    140a:	82 2f       	mov	r24, r18
    140c:	90 e0       	ldi	r25, 0x00	; 0
    140e:	90 93 a6 01 	sts	0x01A6, r25	; 0x8001a6 <thisVoltage+0x1>
    1412:	80 93 a5 01 	sts	0x01A5, r24	; 0x8001a5 <thisVoltage>
    1416:	8e 85       	ldd	r24, Y+14	; 0x0e
    1418:	90 e0       	ldi	r25, 0x00	; 0
    141a:	90 93 a8 01 	sts	0x01A8, r25	; 0x8001a8 <thisVoltage+0x3>
    141e:	80 93 a7 01 	sts	0x01A7, r24	; 0x8001a7 <thisVoltage+0x2>
    1422:	8f 85       	ldd	r24, Y+15	; 0x0f
    1424:	90 e0       	ldi	r25, 0x00	; 0
    1426:	90 93 aa 01 	sts	0x01AA, r25	; 0x8001aa <thisVoltage+0x5>
    142a:	80 93 a9 01 	sts	0x01A9, r24	; 0x8001a9 <thisVoltage+0x4>
    142e:	88 89       	ldd	r24, Y+16	; 0x10
    1430:	90 e0       	ldi	r25, 0x00	; 0
    1432:	90 93 ac 01 	sts	0x01AC, r25	; 0x8001ac <thisVoltage+0x7>
    1436:	80 93 ab 01 	sts	0x01AB, r24	; 0x8001ab <thisVoltage+0x6>
    143a:	89 89       	ldd	r24, Y+17	; 0x11
    143c:	90 e0       	ldi	r25, 0x00	; 0
    143e:	90 93 ae 01 	sts	0x01AE, r25	; 0x8001ae <thisVoltage+0x9>
    1442:	80 93 ad 01 	sts	0x01AD, r24	; 0x8001ad <thisVoltage+0x8>
    1446:	8a 89       	ldd	r24, Y+18	; 0x12
    1448:	90 e0       	ldi	r25, 0x00	; 0
    144a:	90 93 b0 01 	sts	0x01B0, r25	; 0x8001b0 <thisVoltage+0xb>
    144e:	80 93 af 01 	sts	0x01AF, r24	; 0x8001af <thisVoltage+0xa>
    1452:	20 93 88 00 	sts	0x0088, r18	; 0x800088 <__TEXT_REGION_LENGTH__+0x7e0088>
    1456:	8e 85       	ldd	r24, Y+14	; 0x0e
    1458:	80 93 8a 00 	sts	0x008A, r24	; 0x80008a <__TEXT_REGION_LENGTH__+0x7e008a>
    145c:	8f 85       	ldd	r24, Y+15	; 0x0f
    145e:	87 bd       	out	0x27, r24	; 39
    1460:	88 89       	ldd	r24, Y+16	; 0x10
    1462:	88 bd       	out	0x28, r24	; 40
    1464:	89 89       	ldd	r24, Y+17	; 0x11
    1466:	80 93 b3 00 	sts	0x00B3, r24	; 0x8000b3 <__TEXT_REGION_LENGTH__+0x7e00b3>
    146a:	8a 89       	ldd	r24, Y+18	; 0x12
    146c:	80 93 b4 00 	sts	0x00B4, r24	; 0x8000b4 <__TEXT_REGION_LENGTH__+0x7e00b4>
    1470:	64 96       	adiw	r28, 0x14	; 20
    1472:	0f b6       	in	r0, 0x3f	; 63
    1474:	f8 94       	cli
    1476:	de bf       	out	0x3e, r29	; 62
    1478:	0f be       	out	0x3f, r0	; 63
    147a:	cd bf       	out	0x3d, r28	; 61
    147c:	df 91       	pop	r29
    147e:	cf 91       	pop	r28
    1480:	1f 91       	pop	r17
    1482:	0f 91       	pop	r16
    1484:	ff 90       	pop	r15
    1486:	ef 90       	pop	r14
    1488:	df 90       	pop	r13
    148a:	cf 90       	pop	r12
    148c:	bf 90       	pop	r11
    148e:	af 90       	pop	r10
    1490:	9f 90       	pop	r9
    1492:	8f 90       	pop	r8
    1494:	7f 90       	pop	r7
    1496:	6f 90       	pop	r6
    1498:	5f 90       	pop	r5
    149a:	4f 90       	pop	r4
    149c:	3f 90       	pop	r3
    149e:	2f 90       	pop	r2
    14a0:	08 95       	ret
    14a2:	6f ef       	ldi	r22, 0xFF	; 255
    14a4:	a8 cf       	rjmp	.-176    	; 0x13f6 <sendMotor+0x11c>
    14a6:	6f ef       	ldi	r22, 0xFF	; 255
    14a8:	f7 01       	movw	r30, r14
    14aa:	60 83       	st	Z, r22
    14ac:	11 82       	std	Z+1, r1	; 0x01
    14ae:	a6 cf       	rjmp	.-180    	; 0x13fc <sendMotor+0x122>
    14b0:	61 95       	neg	r22
    14b2:	fa cf       	rjmp	.-12     	; 0x14a8 <sendMotor+0x1ce>

000014b4 <correctAttitude>:
    14b4:	4f 92       	push	r4
    14b6:	5f 92       	push	r5
    14b8:	6f 92       	push	r6
    14ba:	7f 92       	push	r7
    14bc:	8f 92       	push	r8
    14be:	9f 92       	push	r9
    14c0:	af 92       	push	r10
    14c2:	bf 92       	push	r11
    14c4:	cf 92       	push	r12
    14c6:	df 92       	push	r13
    14c8:	ef 92       	push	r14
    14ca:	ff 92       	push	r15
    14cc:	cf 93       	push	r28
    14ce:	df 93       	push	r29
    14d0:	ec 01       	movw	r28, r24
    14d2:	60 91 00 01 	lds	r22, 0x0100	; 0x800100 <__DATA_REGION_ORIGIN__>
    14d6:	70 91 01 01 	lds	r23, 0x0101	; 0x800101 <__DATA_REGION_ORIGIN__+0x1>
    14da:	07 2e       	mov	r0, r23
    14dc:	00 0c       	add	r0, r0
    14de:	88 0b       	sbc	r24, r24
    14e0:	99 0b       	sbc	r25, r25
    14e2:	15 d3       	rcall	.+1578   	; 0x1b0e <__floatsisf>
    14e4:	9b 01       	movw	r18, r22
    14e6:	ac 01       	movw	r20, r24
    14e8:	6c 89       	ldd	r22, Y+20	; 0x14
    14ea:	7d 89       	ldd	r23, Y+21	; 0x15
    14ec:	8e 89       	ldd	r24, Y+22	; 0x16
    14ee:	9f 89       	ldd	r25, Y+23	; 0x17
    14f0:	0b d2       	rcall	.+1046   	; 0x1908 <__subsf3>
    14f2:	6b 01       	movw	r12, r22
    14f4:	7c 01       	movw	r14, r24
    14f6:	2c 85       	ldd	r18, Y+12	; 0x0c
    14f8:	3d 85       	ldd	r19, Y+13	; 0x0d
    14fa:	4e 85       	ldd	r20, Y+14	; 0x0e
    14fc:	5f 85       	ldd	r21, Y+15	; 0x0f
    14fe:	05 d2       	rcall	.+1034   	; 0x190a <__addsf3>
    1500:	4b 01       	movw	r8, r22
    1502:	5c 01       	movw	r10, r24
    1504:	6c 87       	std	Y+12, r22	; 0x0c
    1506:	7d 87       	std	Y+13, r23	; 0x0d
    1508:	8e 87       	std	Y+14, r24	; 0x0e
    150a:	9f 87       	std	Y+15, r25	; 0x0f
    150c:	28 81       	ld	r18, Y
    150e:	39 81       	ldd	r19, Y+1	; 0x01
    1510:	4a 81       	ldd	r20, Y+2	; 0x02
    1512:	5b 81       	ldd	r21, Y+3	; 0x03
    1514:	c7 01       	movw	r24, r14
    1516:	b6 01       	movw	r22, r12
    1518:	61 d4       	rcall	.+2242   	; 0x1ddc <__mulsf3>
    151a:	2b 01       	movw	r4, r22
    151c:	3c 01       	movw	r6, r24
    151e:	2c 81       	ldd	r18, Y+4	; 0x04
    1520:	3d 81       	ldd	r19, Y+5	; 0x05
    1522:	4e 81       	ldd	r20, Y+6	; 0x06
    1524:	5f 81       	ldd	r21, Y+7	; 0x07
    1526:	c5 01       	movw	r24, r10
    1528:	b4 01       	movw	r22, r8
    152a:	58 d4       	rcall	.+2224   	; 0x1ddc <__mulsf3>
    152c:	9b 01       	movw	r18, r22
    152e:	ac 01       	movw	r20, r24
    1530:	c3 01       	movw	r24, r6
    1532:	b2 01       	movw	r22, r4
    1534:	ea d1       	rcall	.+980    	; 0x190a <__addsf3>
    1536:	4b 01       	movw	r8, r22
    1538:	5c 01       	movw	r10, r24
    153a:	28 89       	ldd	r18, Y+16	; 0x10
    153c:	39 89       	ldd	r19, Y+17	; 0x11
    153e:	4a 89       	ldd	r20, Y+18	; 0x12
    1540:	5b 89       	ldd	r21, Y+19	; 0x13
    1542:	c7 01       	movw	r24, r14
    1544:	b6 01       	movw	r22, r12
    1546:	e0 d1       	rcall	.+960    	; 0x1908 <__subsf3>
    1548:	28 85       	ldd	r18, Y+8	; 0x08
    154a:	39 85       	ldd	r19, Y+9	; 0x09
    154c:	4a 85       	ldd	r20, Y+10	; 0x0a
    154e:	5b 85       	ldd	r21, Y+11	; 0x0b
    1550:	45 d4       	rcall	.+2186   	; 0x1ddc <__mulsf3>
    1552:	9b 01       	movw	r18, r22
    1554:	ac 01       	movw	r20, r24
    1556:	c5 01       	movw	r24, r10
    1558:	b4 01       	movw	r22, r8
    155a:	d7 d1       	rcall	.+942    	; 0x190a <__addsf3>
    155c:	c8 8a       	std	Y+16, r12	; 0x10
    155e:	d9 8a       	std	Y+17, r13	; 0x11
    1560:	ea 8a       	std	Y+18, r14	; 0x12
    1562:	fb 8a       	std	Y+19, r15	; 0x13
    1564:	60 93 2c 01 	sts	0x012C, r22	; 0x80012c <__data_end>
    1568:	70 93 2d 01 	sts	0x012D, r23	; 0x80012d <__data_end+0x1>
    156c:	80 93 2e 01 	sts	0x012E, r24	; 0x80012e <__data_end+0x2>
    1570:	90 93 2f 01 	sts	0x012F, r25	; 0x80012f <__data_end+0x3>
    1574:	c0 92 5e 01 	sts	0x015E, r12	; 0x80015e <daGlobal>
    1578:	d0 92 5f 01 	sts	0x015F, r13	; 0x80015f <daGlobal+0x1>
    157c:	e0 92 60 01 	sts	0x0160, r14	; 0x800160 <daGlobal+0x2>
    1580:	f0 92 61 01 	sts	0x0161, r15	; 0x800161 <daGlobal+0x3>
    1584:	df 91       	pop	r29
    1586:	cf 91       	pop	r28
    1588:	ff 90       	pop	r15
    158a:	ef 90       	pop	r14
    158c:	df 90       	pop	r13
    158e:	cf 90       	pop	r12
    1590:	bf 90       	pop	r11
    1592:	af 90       	pop	r10
    1594:	9f 90       	pop	r9
    1596:	8f 90       	pop	r8
    1598:	7f 90       	pop	r7
    159a:	6f 90       	pop	r6
    159c:	5f 90       	pop	r5
    159e:	4f 90       	pop	r4
    15a0:	08 95       	ret

000015a2 <main>:


//================================================================================================
//************************************       MAIN       ******************************************
//================================================================================================
int main(void){
    15a2:	bf 92       	push	r11
    15a4:	cf 92       	push	r12
    15a6:	df 92       	push	r13
    15a8:	ef 92       	push	r14
    15aa:	ff 92       	push	r15
    15ac:	0f 93       	push	r16
    15ae:	1f 93       	push	r17
    15b0:	cf 93       	push	r28
    15b2:	df 93       	push	r29
    15b4:	cd b7       	in	r28, 0x3d	; 61
    15b6:	de b7       	in	r29, 0x3e	; 62
    15b8:	68 97       	sbiw	r28, 0x18	; 24
    15ba:	0f b6       	in	r0, 0x3f	; 63
    15bc:	f8 94       	cli
    15be:	de bf       	out	0x3e, r29	; 62
    15c0:	0f be       	out	0x3f, r0	; 63
    15c2:	cd bf       	out	0x3d, r28	; 61
	mC_init();					// Initialize micro controller
    15c4:	0e 94 fc 00 	call	0x1f8	; 0x1f8 <mC_init>

	// Initialize TWI module for slave operation. Include address and/or enable General Call
	TWI_Slave_Initialise((unsigned char)((0x08<<TWI_ADR_BITS) | (TRUE<<TWI_GEN_BIT) )); // TRUE
    15c8:	81 e1       	ldi	r24, 0x11	; 17
    15ca:	b6 d0       	rcall	.+364    	; 0x1738 <TWI_Slave_Initialise>
	sei();						// Enable global interrupts
	TWI_Start_Transceiver();	// Enable reception of first command from master
    15cc:	78 94       	sei
    15ce:	c6 d0       	rcall	.+396    	; 0x175c <TWI_Start_Transceiver>
		
	// Start timer3 (unused?)
	TCNT3H = 0;
    15d0:	10 92 95 00 	sts	0x0095, r1	; 0x800095 <__TEXT_REGION_LENGTH__+0x7e0095>
	TCNT3L = 0;
    15d4:	10 92 94 00 	sts	0x0094, r1	; 0x800094 <__TEXT_REGION_LENGTH__+0x7e0094>
	TIMSK3 |= (1<<TOIE3);		// Enable Timer3 overflow interrupt - ChatGPT advised
    15d8:	80 91 71 00 	lds	r24, 0x0071	; 0x800071 <__TEXT_REGION_LENGTH__+0x7e0071>
    15dc:	81 60       	ori	r24, 0x01	; 1
    15de:	80 93 71 00 	sts	0x0071, r24	; 0x800071 <__TEXT_REGION_LENGTH__+0x7e0071>
	PORTC |= BIT(redLED);		// Turn ON redLED
    15e2:	47 9a       	sbi	0x08, 7	; 8
}

//		PID initialization function
//========================================================================
void PID_Init(PIDController* pid, double Kp, double Ki, double Kd, double setPoint) {
	pid->Kp = Kp;
    15e4:	83 e3       	ldi	r24, 0x33	; 51
    15e6:	93 e3       	ldi	r25, 0x33	; 51
    15e8:	a3 eb       	ldi	r26, 0xB3	; 179
    15ea:	bf e3       	ldi	r27, 0x3F	; 63
    15ec:	89 83       	std	Y+1, r24	; 0x01
    15ee:	9a 83       	std	Y+2, r25	; 0x02
    15f0:	ab 83       	std	Y+3, r26	; 0x03
    15f2:	bc 83       	std	Y+4, r27	; 0x04
	pid->Ki = Ki;
    15f4:	89 e2       	ldi	r24, 0x29	; 41
    15f6:	9c e5       	ldi	r25, 0x5C	; 92
    15f8:	af e0       	ldi	r26, 0x0F	; 15
    15fa:	be e3       	ldi	r27, 0x3E	; 62
    15fc:	8d 83       	std	Y+5, r24	; 0x05
    15fe:	9e 83       	std	Y+6, r25	; 0x06
    1600:	af 83       	std	Y+7, r26	; 0x07
    1602:	b8 87       	std	Y+8, r27	; 0x08
	pid->Kd = Kd;
    1604:	8d ec       	ldi	r24, 0xCD	; 205
    1606:	9c ec       	ldi	r25, 0xCC	; 204
    1608:	ac e4       	ldi	r26, 0x4C	; 76
    160a:	be e3       	ldi	r27, 0x3E	; 62
    160c:	89 87       	std	Y+9, r24	; 0x09
    160e:	9a 87       	std	Y+10, r25	; 0x0a
    1610:	ab 87       	std	Y+11, r26	; 0x0b
    1612:	bc 87       	std	Y+12, r27	; 0x0c
	pid->integral = 0.0;
    1614:	1d 86       	std	Y+13, r1	; 0x0d
    1616:	1e 86       	std	Y+14, r1	; 0x0e
    1618:	1f 86       	std	Y+15, r1	; 0x0f
    161a:	18 8a       	std	Y+16, r1	; 0x10
	pid->prevError = 0.0;
    161c:	19 8a       	std	Y+17, r1	; 0x11
    161e:	1a 8a       	std	Y+18, r1	; 0x12
    1620:	1b 8a       	std	Y+19, r1	; 0x13
    1622:	1c 8a       	std	Y+20, r1	; 0x14
	pid->setPoint = setPoint;
    1624:	80 e0       	ldi	r24, 0x00	; 0
    1626:	90 e0       	ldi	r25, 0x00	; 0
    1628:	a4 e3       	ldi	r26, 0x34	; 52
    162a:	b3 e4       	ldi	r27, 0x43	; 67
    162c:	8d 8b       	std	Y+21, r24	; 0x15
    162e:	9e 8b       	std	Y+22, r25	; 0x16
    1630:	af 8b       	std	Y+23, r26	; 0x17
	// PID INITIALIZATIONS (Kp, Ki, Kd, setPoint)
	PIDController pid_com, pid_att;
	PID_Init(&pid_com, 1, 0, 0, 0);
	PID_Init(&pid_att, 1.4, 0.14, 0.2, 180); // , .005, .004); // 1.4, 0, 0 works perfectly for robot 6
		
	getHome();					// Get force sensor home position and assign to 'home'
    1632:	b8 8f       	std	Y+24, r27	; 0x18
    1634:	d9 d9       	rcall	.-3150   	; 0x9e8 <getHome>
	int iii = 0;				// iterator



	// ========== PRIMARY LOOP ==========
	while(start == 0){
    1636:	80 91 40 01 	lds	r24, 0x0140	; 0x800140 <start>
    163a:	81 11       	cpse	r24, r1
    163c:	4c c0       	rjmp	.+152    	; 0x16d6 <main+0x134>
    163e:	00 e0       	ldi	r16, 0x00	; 0
    1640:	10 e0       	ldi	r17, 0x00	; 0
		sensorKinematics();		// Force feedback, assigned to EE var
		
		if (mode_switch) {		// Defaults to FALSE. Switch mode via MATLAB
			while (iii < 1000){ // Induce motion in payload for CoM estimate
				iii ++;
				u_r[2] = -2500;
    1642:	c1 2c       	mov	r12, r1
    1644:	80 e4       	ldi	r24, 0x40	; 64
    1646:	d8 2e       	mov	r13, r24
    1648:	8c e1       	ldi	r24, 0x1C	; 28
    164a:	e8 2e       	mov	r14, r24
    164c:	85 ec       	ldi	r24, 0xC5	; 197
				sendMotor();
				iii ++;
			}
		}
		
		PORTC ^= BIT(blueLED);	// Toggle blueLED
    164e:	f8 2e       	mov	r15, r24


	// ========== PRIMARY LOOP ==========
	while(start == 0){
		
		runTWI();				// Run all i2c comms
    1650:	90 e4       	ldi	r25, 0x40	; 64
    1652:	b9 2e       	mov	r11, r25
							
		sensorKinematics();		// Force feedback, assigned to EE var
    1654:	24 de       	rcall	.-952    	; 0x129e <runTWI>
    1656:	45 db       	rcall	.-2422   	; 0xce2 <sensorKinematics>
		
		if (mode_switch) {		// Defaults to FALSE. Switch mode via MATLAB
    1658:	80 91 3e 01 	lds	r24, 0x013E	; 0x80013e <mode_switch>
    165c:	90 91 3f 01 	lds	r25, 0x013F	; 0x80013f <mode_switch+0x1>
    1660:	89 2b       	or	r24, r25
    1662:	09 f4       	brne	.+2      	; 0x1666 <main+0xc4>
    1664:	4d c0       	rjmp	.+154    	; 0x1700 <main+0x15e>
			while (iii < 1000){ // Induce motion in payload for CoM estimate
    1666:	08 3e       	cpi	r16, 0xE8	; 232
    1668:	23 e0       	ldi	r18, 0x03	; 3
    166a:	12 07       	cpc	r17, r18
    166c:	7c f4       	brge	.+30     	; 0x168c <main+0xea>
				iii ++;
    166e:	0f 5f       	subi	r16, 0xFF	; 255
    1670:	1f 4f       	sbci	r17, 0xFF	; 255
				u_r[2] = -2500;
    1672:	c0 92 34 01 	sts	0x0134, r12	; 0x800134 <__data_end+0x8>
    1676:	d0 92 35 01 	sts	0x0135, r13	; 0x800135 <__data_end+0x9>
    167a:	e0 92 36 01 	sts	0x0136, r14	; 0x800136 <__data_end+0xa>
    167e:	f0 92 37 01 	sts	0x0137, r15	; 0x800137 <__data_end+0xb>
				sendMotor();
    1682:	2b de       	rcall	.-938    	; 0x12da <sendMotor>
		runTWI();				// Run all i2c comms
							
		sensorKinematics();		// Force feedback, assigned to EE var
		
		if (mode_switch) {		// Defaults to FALSE. Switch mode via MATLAB
			while (iii < 1000){ // Induce motion in payload for CoM estimate
    1684:	08 3e       	cpi	r16, 0xE8	; 232
    1686:	83 e0       	ldi	r24, 0x03	; 3
    1688:	18 07       	cpc	r17, r24
			}

			// nullSpaceControl(); // Cancel out force detected by sensor
			//comEstimate2(&pid_com);				// CoM Estimate
			
			correctAttitude(&pid_att); // Perform attitude correction
    168a:	89 f7       	brne	.-30     	; 0x166e <main+0xcc>
    168c:	ce 01       	movw	r24, r28
    168e:	01 96       	adiw	r24, 0x01	; 1
    1690:	11 df       	rcall	.-478    	; 0x14b4 <correctAttitude>
			u_r[1] = 0;
    1692:	10 92 30 01 	sts	0x0130, r1	; 0x800130 <__data_end+0x4>
    1696:	10 92 31 01 	sts	0x0131, r1	; 0x800131 <__data_end+0x5>
    169a:	10 92 32 01 	sts	0x0132, r1	; 0x800132 <__data_end+0x6>
    169e:	10 92 33 01 	sts	0x0133, r1	; 0x800133 <__data_end+0x7>
			u_r[2] = 0;
    16a2:	10 92 34 01 	sts	0x0134, r1	; 0x800134 <__data_end+0x8>
    16a6:	10 92 35 01 	sts	0x0135, r1	; 0x800135 <__data_end+0x9>
    16aa:	10 92 36 01 	sts	0x0136, r1	; 0x800136 <__data_end+0xa>
    16ae:	10 92 37 01 	sts	0x0137, r1	; 0x800137 <__data_end+0xb>
			
			sendMotor(); // Send all motor commands
    16b2:	13 de       	rcall	.-986    	; 0x12da <sendMotor>
				sendMotor();
				iii ++;
			}
		}
		
		PORTC ^= BIT(blueLED);	// Toggle blueLED
    16b4:	88 b1       	in	r24, 0x08	; 8
    16b6:	8b 25       	eor	r24, r11
    16b8:	88 b9       	out	0x08, r24	; 8
	#else
		//round up by default
		__ticks_dc = (uint32_t)(ceil(fabs(__tmp)));
	#endif

	__builtin_avr_delay_cycles(__ticks_dc);
    16ba:	9f e7       	ldi	r25, 0x7F	; 127
    16bc:	2a e1       	ldi	r18, 0x1A	; 26
    16be:	86 e0       	ldi	r24, 0x06	; 6
    16c0:	91 50       	subi	r25, 0x01	; 1
    16c2:	20 40       	sbci	r18, 0x00	; 0
    16c4:	80 40       	sbci	r24, 0x00	; 0
    16c6:	e1 f7       	brne	.-8      	; 0x16c0 <main+0x11e>
    16c8:	00 c0       	rjmp	.+0      	; 0x16ca <main+0x128>
    16ca:	00 00       	nop
	int iii = 0;				// iterator



	// ========== PRIMARY LOOP ==========
	while(start == 0){
    16cc:	80 91 40 01 	lds	r24, 0x0140	; 0x800140 <start>
    16d0:	88 23       	and	r24, r24
    16d2:	09 f4       	brne	.+2      	; 0x16d6 <main+0x134>
    16d4:	bf cf       	rjmp	.-130    	; 0x1654 <main+0xb2>
		PORTC ^= BIT(blueLED);	// Toggle blueLED
		_delay_ms(100);			// Changed from 100 to test which loop is running 11/28/23
	}
	
	//PORTC |= BIT(blueLED);		// Turn ON blueLED
	TCCR3B = (1<<CS32) | (0<<CS31) | (1<<CS30);
    16d6:	85 e0       	ldi	r24, 0x05	; 5
    16d8:	80 93 91 00 	sts	0x0091, r24	; 0x800091 <__TEXT_REGION_LENGTH__+0x7e0091>
		
	return 0;
    16dc:	80 e0       	ldi	r24, 0x00	; 0
    16de:	90 e0       	ldi	r25, 0x00	; 0
    16e0:	68 96       	adiw	r28, 0x18	; 24
    16e2:	0f b6       	in	r0, 0x3f	; 63
    16e4:	f8 94       	cli
    16e6:	de bf       	out	0x3e, r29	; 62
    16e8:	0f be       	out	0x3f, r0	; 63
    16ea:	cd bf       	out	0x3d, r28	; 61
    16ec:	df 91       	pop	r29
    16ee:	cf 91       	pop	r28
    16f0:	1f 91       	pop	r17
    16f2:	0f 91       	pop	r16
    16f4:	ff 90       	pop	r15
    16f6:	ef 90       	pop	r14
    16f8:	df 90       	pop	r13
    16fa:	cf 90       	pop	r12
    16fc:	bf 90       	pop	r11
    16fe:	08 95       	ret
		}	
		else {
			// When not in on-board mode, send initial 'stop' command
			iii = 0;
			if (iii == 0) {
				u_r[0] = 0;
    1700:	10 92 2c 01 	sts	0x012C, r1	; 0x80012c <__data_end>
    1704:	10 92 2d 01 	sts	0x012D, r1	; 0x80012d <__data_end+0x1>
    1708:	10 92 2e 01 	sts	0x012E, r1	; 0x80012e <__data_end+0x2>
    170c:	10 92 2f 01 	sts	0x012F, r1	; 0x80012f <__data_end+0x3>
				u_r[1] = 0;
    1710:	10 92 30 01 	sts	0x0130, r1	; 0x800130 <__data_end+0x4>
    1714:	10 92 31 01 	sts	0x0131, r1	; 0x800131 <__data_end+0x5>
    1718:	10 92 32 01 	sts	0x0132, r1	; 0x800132 <__data_end+0x6>
    171c:	10 92 33 01 	sts	0x0133, r1	; 0x800133 <__data_end+0x7>
				u_r[2] = 0;
    1720:	10 92 34 01 	sts	0x0134, r1	; 0x800134 <__data_end+0x8>
    1724:	10 92 35 01 	sts	0x0135, r1	; 0x800135 <__data_end+0x9>
    1728:	10 92 36 01 	sts	0x0136, r1	; 0x800136 <__data_end+0xa>
    172c:	10 92 37 01 	sts	0x0137, r1	; 0x800137 <__data_end+0xb>
				sendMotor();
    1730:	d4 dd       	rcall	.-1112   	; 0x12da <sendMotor>
				iii ++;
    1732:	01 e0       	ldi	r16, 0x01	; 1
    1734:	10 e0       	ldi	r17, 0x00	; 0
    1736:	be cf       	rjmp	.-132    	; 0x16b4 <main+0x112>

00001738 <TWI_Slave_Initialise>:
  TWCR = (1<<TWEN)|                             // TWI Interface enabled.
         (1<<TWIE)|(1<<TWINT)|                  // Enable TWI Interrupt and clear the flag.
         (1<<TWEA)|(0<<TWSTA)|(0<<TWSTO)|       // Prepare to ACK next time the Slave is addressed.
         (0<<TWWC);                             //
  TWI_busy = 1;
}
    1738:	80 93 ba 00 	sts	0x00BA, r24	; 0x8000ba <__TEXT_REGION_LENGTH__+0x7e00ba>
    173c:	84 e0       	ldi	r24, 0x04	; 4
    173e:	80 93 bc 00 	sts	0x00BC, r24	; 0x8000bc <__TEXT_REGION_LENGTH__+0x7e00bc>
    1742:	10 92 57 01 	sts	0x0157, r1	; 0x800157 <TWI_busy>
    1746:	08 95       	ret

00001748 <TWI_Transceiver_Busy>:
    1748:	80 91 57 01 	lds	r24, 0x0157	; 0x800157 <TWI_busy>
    174c:	08 95       	ret

0000174e <TWI_Get_State_Info>:
    174e:	80 91 57 01 	lds	r24, 0x0157	; 0x800157 <TWI_busy>
    1752:	81 11       	cpse	r24, r1
    1754:	fe cf       	rjmp	.-4      	; 0x1752 <TWI_Get_State_Info+0x4>
    1756:	80 91 1e 01 	lds	r24, 0x011E	; 0x80011e <TWI_state>
    175a:	08 95       	ret

0000175c <TWI_Start_Transceiver>:
a transmission, or just starting the transceiver for reception. The driver will reuse the data previously put
in the transceiver buffers. The function will hold execution (loop) until the TWI_ISR has completed with the 
previous operation, then initialize the next operation and return.
****************************************************************************/
void TWI_Start_Transceiver( void )
{
    175c:	80 91 57 01 	lds	r24, 0x0157	; 0x800157 <TWI_busy>
  while ( TWI_Transceiver_Busy() ) {}             // Wait until TWI is ready for next transmission.
    1760:	81 11       	cpse	r24, r1
    1762:	fe cf       	rjmp	.-4      	; 0x1760 <TWI_Start_Transceiver+0x4>
  TWI_statusReg.all = 0;      
  TWI_statusReg.lastTransOK = 1;				// HYLAND 07-20-2024 I ADDED THIS TO MAKE IT WORRRRRKKKK
    1764:	81 e0       	ldi	r24, 0x01	; 1
    1766:	80 93 56 01 	sts	0x0156, r24	; 0x800156 <TWI_statusReg>
  TWI_state         = TWI_NO_STATE ;
    176a:	88 ef       	ldi	r24, 0xF8	; 248
    176c:	80 93 1e 01 	sts	0x011E, r24	; 0x80011e <TWI_state>
  TWCR = (1<<TWEN)|                             // TWI Interface enabled.
    1770:	85 ec       	ldi	r24, 0xC5	; 197
    1772:	80 93 bc 00 	sts	0x00BC, r24	; 0x8000bc <__TEXT_REGION_LENGTH__+0x7e00bc>
         (1<<TWIE)|(1<<TWINT)|                  // Enable TWI Interrupt and clear the flag.
         (1<<TWEA)|(0<<TWSTA)|(0<<TWSTO)|       // Prepare to ACK next time the Slave is addressed.
         (0<<TWWC);                             //
  TWI_busy = 0;
    1776:	10 92 57 01 	sts	0x0157, r1	; 0x800157 <TWI_busy>
    177a:	08 95       	ret

0000177c <TWI_Get_Data_From_Transceiver>:
to fetch in the function call. The function will hold execution (loop) until the TWI_ISR has completed 
with the previous operation, before reading out the data and returning.
If there was an error in the previous transmission the function will return the TWI State code.
****************************************************************************/
unsigned char TWI_Get_Data_From_Transceiver( unsigned char *msg, unsigned char msgSize )
{
    177c:	20 91 57 01 	lds	r18, 0x0157	; 0x800157 <TWI_busy>
  unsigned char i;

  while ( TWI_Transceiver_Busy() ) {}             // Wait until TWI is ready for next transmission.
    1780:	21 11       	cpse	r18, r1
    1782:	fe cf       	rjmp	.-4      	; 0x1780 <TWI_Get_Data_From_Transceiver+0x4>

  if( TWI_statusReg.lastTransOK )               // Last transmission completed successfully.              
    1784:	20 91 56 01 	lds	r18, 0x0156	; 0x800156 <TWI_statusReg>
    1788:	20 ff       	sbrs	r18, 0
    178a:	15 c0       	rjmp	.+42     	; 0x17b6 <TWI_Get_Data_From_Transceiver+0x3a>
  {                                             
    for ( i=0; i<msgSize; i++ )                 // Copy data from Transceiver buffer.
    178c:	66 23       	and	r22, r22
    178e:	71 f0       	breq	.+28     	; 0x17ac <TWI_Get_Data_From_Transceiver+0x30>
    1790:	a9 e5       	ldi	r26, 0x59	; 89
    1792:	b1 e0       	ldi	r27, 0x01	; 1
    1794:	fc 01       	movw	r30, r24
    1796:	61 50       	subi	r22, 0x01	; 1
    1798:	86 2f       	mov	r24, r22
    179a:	90 e0       	ldi	r25, 0x00	; 0
    179c:	01 96       	adiw	r24, 0x01	; 1
    179e:	8e 0f       	add	r24, r30
    17a0:	9f 1f       	adc	r25, r31
    {
      msg[ i ] = TWI_buf[ i ];
    17a2:	2d 91       	ld	r18, X+
    17a4:	21 93       	st	Z+, r18

  while ( TWI_Transceiver_Busy() ) {}             // Wait until TWI is ready for next transmission.

  if( TWI_statusReg.lastTransOK )               // Last transmission completed successfully.              
  {                                             
    for ( i=0; i<msgSize; i++ )                 // Copy data from Transceiver buffer.
    17a6:	e8 17       	cp	r30, r24
    17a8:	f9 07       	cpc	r31, r25
    17aa:	d9 f7       	brne	.-10     	; 0x17a2 <TWI_Get_Data_From_Transceiver+0x26>
    {
      msg[ i ] = TWI_buf[ i ];
    }
    TWI_statusReg.RxDataInBuf = FALSE;          // Slave Receive data has been read from buffer.
    17ac:	20 91 56 01 	lds	r18, 0x0156	; 0x800156 <TWI_statusReg>
    17b0:	2d 7f       	andi	r18, 0xFD	; 253
    17b2:	20 93 56 01 	sts	0x0156, r18	; 0x800156 <TWI_statusReg>
  }
  return( TWI_statusReg.lastTransOK );                                   
}
    17b6:	82 2f       	mov	r24, r18
    17b8:	81 70       	andi	r24, 0x01	; 1
    17ba:	08 95       	ret

000017bc <__vector_26>:
This function is the Interrupt Service Routine (ISR), and called when the TWI interrupt is triggered;
that is whenever a TWI event has occurred. This function should not be called directly from the main
application.
****************************************************************************/
ISR(TWI_vect)
{
    17bc:	1f 92       	push	r1
    17be:	0f 92       	push	r0
    17c0:	0f b6       	in	r0, 0x3f	; 63
    17c2:	0f 92       	push	r0
    17c4:	11 24       	eor	r1, r1
    17c6:	0b b6       	in	r0, 0x3b	; 59
    17c8:	0f 92       	push	r0
    17ca:	8f 93       	push	r24
    17cc:	9f 93       	push	r25
    17ce:	ef 93       	push	r30
    17d0:	ff 93       	push	r31
  static unsigned char TWI_bufPtr;
  
  switch (TWSR)
    17d2:	80 91 b9 00 	lds	r24, 0x00B9	; 0x8000b9 <__TEXT_REGION_LENGTH__+0x7e00b9>
    17d6:	80 39       	cpi	r24, 0x90	; 144
    17d8:	09 f4       	brne	.+2      	; 0x17dc <__vector_26+0x20>
    17da:	6a c0       	rjmp	.+212    	; 0x18b0 <__vector_26+0xf4>
    17dc:	f0 f0       	brcs	.+60     	; 0x181a <__vector_26+0x5e>
    17de:	88 3a       	cpi	r24, 0xA8	; 168
    17e0:	e1 f1       	breq	.+120    	; 0x185a <__vector_26+0x9e>
    17e2:	08 f4       	brcc	.+2      	; 0x17e6 <__vector_26+0x2a>
    17e4:	5a c0       	rjmp	.+180    	; 0x189a <__vector_26+0xde>
    17e6:	80 3c       	cpi	r24, 0xC0	; 192
    17e8:	e1 f1       	breq	.+120    	; 0x1862 <__vector_26+0xa6>
    17ea:	88 3c       	cpi	r24, 0xC8	; 200
    17ec:	09 f4       	brne	.+2      	; 0x17f0 <__vector_26+0x34>
    17ee:	4d c0       	rjmp	.+154    	; 0x188a <__vector_26+0xce>
    17f0:	88 3b       	cpi	r24, 0xB8	; 184
    17f2:	e9 f5       	brne	.+122    	; 0x186e <__vector_26+0xb2>
    17f4:	e0 91 55 01 	lds	r30, 0x0155	; 0x800155 <TWI_bufPtr.1675>
    17f8:	81 e0       	ldi	r24, 0x01	; 1
    17fa:	8e 0f       	add	r24, r30
    17fc:	f0 e0       	ldi	r31, 0x00	; 0
  {
    case TWI_STX_ADR_ACK:            // Own SLA+R has been received; ACK has been returned
     TWI_bufPtr   = 0;                                 // Set buffer pointer to first data location
    case TWI_STX_DATA_ACK:           // Data byte in TWDR has been transmitted; ACK has been received
      TWDR = TWI_buf[TWI_bufPtr++];
    17fe:	80 93 55 01 	sts	0x0155, r24	; 0x800155 <TWI_bufPtr.1675>
    1802:	e7 5a       	subi	r30, 0xA7	; 167
    1804:	fe 4f       	sbci	r31, 0xFE	; 254
    1806:	80 81       	ld	r24, Z
    1808:	80 93 bb 00 	sts	0x00BB, r24	; 0x8000bb <__TEXT_REGION_LENGTH__+0x7e00bb>
      TWCR = (1<<TWEN)|                                 // TWI Interface enabled
    180c:	85 ec       	ldi	r24, 0xC5	; 197
    180e:	80 93 bc 00 	sts	0x00BC, r24	; 0x8000bc <__TEXT_REGION_LENGTH__+0x7e00bc>
             (1<<TWIE)|(1<<TWINT)|                      // Enable TWI Interrupt and clear the flag to send byte
             (1<<TWEA)|(0<<TWSTA)|(0<<TWSTO)|           // 
             (0<<TWWC);                                 //
      TWI_busy = 1;
    1812:	81 e0       	ldi	r24, 0x01	; 1
    1814:	80 93 57 01 	sts	0x0157, r24	; 0x800157 <TWI_busy>
      break;
    1818:	15 c0       	rjmp	.+42     	; 0x1844 <__vector_26+0x88>
****************************************************************************/
ISR(TWI_vect)
{
  static unsigned char TWI_bufPtr;
  
  switch (TWSR)
    181a:	80 37       	cpi	r24, 0x70	; 112
    181c:	09 f4       	brne	.+2      	; 0x1820 <__vector_26+0x64>
    181e:	42 c0       	rjmp	.+132    	; 0x18a4 <__vector_26+0xe8>
    1820:	80 f5       	brcc	.+96     	; 0x1882 <__vector_26+0xc6>
    1822:	88 23       	and	r24, r24
    1824:	91 f1       	breq	.+100    	; 0x188a <__vector_26+0xce>
    1826:	80 36       	cpi	r24, 0x60	; 96
    1828:	11 f5       	brne	.+68     	; 0x186e <__vector_26+0xb2>
      break;     
    case TWI_SRX_GEN_ACK:            // General call address has been received; ACK has been returned
      TWI_statusReg.genAddressCall = TRUE;
    case TWI_SRX_ADR_ACK:            // Own SLA+W has been received ACK has been returned
                                                       // don't need to clear TWI_S_statusRegister.generalAddressCall due to that it is the default state.
      TWI_statusReg.RxDataInBuf = TRUE;      
    182a:	80 91 56 01 	lds	r24, 0x0156	; 0x800156 <TWI_statusReg>
    182e:	82 60       	ori	r24, 0x02	; 2
    1830:	80 93 56 01 	sts	0x0156, r24	; 0x800156 <TWI_statusReg>
      TWI_bufPtr   = 0;                                 // Set buffer pointer to first data location
    1834:	10 92 55 01 	sts	0x0155, r1	; 0x800155 <TWI_bufPtr.1675>
      
                                                        // Reset the TWI Interrupt to wait for a new event.
      TWCR = (1<<TWEN)|                                 // TWI Interface enabled
    1838:	85 ec       	ldi	r24, 0xC5	; 197
    183a:	80 93 bc 00 	sts	0x00BC, r24	; 0x8000bc <__TEXT_REGION_LENGTH__+0x7e00bc>
             (1<<TWIE)|(1<<TWINT)|                      // Enable TWI Interrupt and clear the flag to send byte
             (1<<TWEA)|(0<<TWSTA)|(0<<TWSTO)|           // Expect ACK on this transmission
             (0<<TWWC);  
      TWI_busy = 1;
    183e:	81 e0       	ldi	r24, 0x01	; 1
    1840:	80 93 57 01 	sts	0x0157, r24	; 0x800157 <TWI_busy>
             (1<<TWEA)|(0<<TWSTA)|(0<<TWSTO)|           // Acknowledge on any new requests.
             (0<<TWWC);                                 //
      
      TWI_busy = 0; // Unknown status, so we wait for a new address match that might be something we can handle
  }
}
    1844:	ff 91       	pop	r31
    1846:	ef 91       	pop	r30
    1848:	9f 91       	pop	r25
    184a:	8f 91       	pop	r24
    184c:	0f 90       	pop	r0
    184e:	0b be       	out	0x3b, r0	; 59
    1850:	0f 90       	pop	r0
    1852:	0f be       	out	0x3f, r0	; 63
    1854:	0f 90       	pop	r0
    1856:	1f 90       	pop	r1
    1858:	18 95       	reti
****************************************************************************/
ISR(TWI_vect)
{
  static unsigned char TWI_bufPtr;
  
  switch (TWSR)
    185a:	e0 e0       	ldi	r30, 0x00	; 0
    185c:	f0 e0       	ldi	r31, 0x00	; 0
    185e:	81 e0       	ldi	r24, 0x01	; 1
    1860:	ce cf       	rjmp	.-100    	; 0x17fe <__vector_26+0x42>
             (0<<TWWC);                                 //
      TWI_busy = 1;
      break;
    case TWI_STX_DATA_NACK:          // Data byte in TWDR has been transmitted; NACK has been received. 
                                     // I.e. this could be the end of the transmission.
      if (TWI_bufPtr == TWI_msgSize) // Have we transceiver all expected data?
    1862:	90 91 55 01 	lds	r25, 0x0155	; 0x800155 <TWI_bufPtr.1675>
    1866:	80 91 58 01 	lds	r24, 0x0158	; 0x800158 <TWI_msgSize>
    186a:	98 17       	cp	r25, r24
    186c:	c9 f1       	breq	.+114    	; 0x18e0 <__vector_26+0x124>
    case TWI_BUS_ERROR:         // Bus error due to an illegal START or STOP condition
      TWI_state = TWSR;                 //Store TWI State as error message, operation also clears noErrors bit
      TWCR =   (1<<TWSTO)|(1<<TWINT);   //Recover from TWI_BUS_ERROR, this will release the SDA and SCL pins thus enabling other devices to use the bus
      break;
    default:     
      TWI_state = TWSR;                                 // Store TWI State as error message, operation also clears the Success bit.      
    186e:	80 91 b9 00 	lds	r24, 0x00B9	; 0x8000b9 <__TEXT_REGION_LENGTH__+0x7e00b9>
    1872:	80 93 1e 01 	sts	0x011E, r24	; 0x80011e <TWI_state>
      TWCR = (1<<TWEN)|                                 // Enable TWI-interface and release TWI pins
    1876:	85 ec       	ldi	r24, 0xC5	; 197
    1878:	80 93 bc 00 	sts	0x00BC, r24	; 0x8000bc <__TEXT_REGION_LENGTH__+0x7e00bc>
             (1<<TWIE)|(1<<TWINT)|                      // Keep interrupt enabled and clear the flag
             (1<<TWEA)|(0<<TWSTA)|(0<<TWSTO)|           // Acknowledge on any new requests.
             (0<<TWWC);                                 //
      
      TWI_busy = 0; // Unknown status, so we wait for a new address match that might be something we can handle
    187c:	10 92 57 01 	sts	0x0157, r1	; 0x800157 <TWI_busy>
  }
}
    1880:	e1 cf       	rjmp	.-62     	; 0x1844 <__vector_26+0x88>
****************************************************************************/
ISR(TWI_vect)
{
  static unsigned char TWI_bufPtr;
  
  switch (TWSR)
    1882:	80 38       	cpi	r24, 0x80	; 128
    1884:	a9 f0       	breq	.+42     	; 0x18b0 <__vector_26+0xf4>
    1886:	88 38       	cpi	r24, 0x88	; 136
    1888:	91 f7       	brne	.-28     	; 0x186e <__vector_26+0xb2>
      break;           
    case TWI_SRX_ADR_DATA_NACK:      // Previously addressed with own SLA+W; data has been received; NOT ACK has been returned
    case TWI_SRX_GEN_DATA_NACK:      // Previously addressed with general call; data has been received; NOT ACK has been returned
    case TWI_STX_DATA_ACK_LAST_BYTE: // Last data byte in TWDR has been transmitted (TWEA = 0); ACK has been received
    case TWI_BUS_ERROR:         // Bus error due to an illegal START or STOP condition
      TWI_state = TWSR;                 //Store TWI State as error message, operation also clears noErrors bit
    188a:	80 91 b9 00 	lds	r24, 0x00B9	; 0x8000b9 <__TEXT_REGION_LENGTH__+0x7e00b9>
    188e:	80 93 1e 01 	sts	0x011E, r24	; 0x80011e <TWI_state>
      TWCR =   (1<<TWSTO)|(1<<TWINT);   //Recover from TWI_BUS_ERROR, this will release the SDA and SCL pins thus enabling other devices to use the bus
    1892:	80 e9       	ldi	r24, 0x90	; 144
    1894:	80 93 bc 00 	sts	0x00BC, r24	; 0x8000bc <__TEXT_REGION_LENGTH__+0x7e00bc>
      break;
    1898:	d5 cf       	rjmp	.-86     	; 0x1844 <__vector_26+0x88>
****************************************************************************/
ISR(TWI_vect)
{
  static unsigned char TWI_bufPtr;
  
  switch (TWSR)
    189a:	88 39       	cpi	r24, 0x98	; 152
    189c:	b1 f3       	breq	.-20     	; 0x188a <__vector_26+0xce>
    189e:	80 3a       	cpi	r24, 0xA0	; 160
    18a0:	51 f3       	breq	.-44     	; 0x1876 <__vector_26+0xba>
    18a2:	e5 cf       	rjmp	.-54     	; 0x186e <__vector_26+0xb2>
             (0<<TWWC);                                 //
      
      TWI_busy = 0;   // Transmit is finished, we are not busy anymore
      break;     
    case TWI_SRX_GEN_ACK:            // General call address has been received; ACK has been returned
      TWI_statusReg.genAddressCall = TRUE;
    18a4:	80 91 56 01 	lds	r24, 0x0156	; 0x800156 <TWI_statusReg>
    18a8:	84 60       	ori	r24, 0x04	; 4
    18aa:	80 93 56 01 	sts	0x0156, r24	; 0x800156 <TWI_statusReg>
    18ae:	bd cf       	rjmp	.-134    	; 0x182a <__vector_26+0x6e>
      TWI_busy = 1;
      
      break;
    case TWI_SRX_ADR_DATA_ACK:       // Previously addressed with own SLA+W; data has been received; ACK has been returned
    case TWI_SRX_GEN_DATA_ACK:       // Previously addressed with general call; data has been received; ACK has been returned
      TWI_buf[TWI_bufPtr++]     = TWDR;
    18b0:	e0 91 55 01 	lds	r30, 0x0155	; 0x800155 <TWI_bufPtr.1675>
    18b4:	81 e0       	ldi	r24, 0x01	; 1
    18b6:	8e 0f       	add	r24, r30
    18b8:	80 93 55 01 	sts	0x0155, r24	; 0x800155 <TWI_bufPtr.1675>
    18bc:	80 91 bb 00 	lds	r24, 0x00BB	; 0x8000bb <__TEXT_REGION_LENGTH__+0x7e00bb>
    18c0:	f0 e0       	ldi	r31, 0x00	; 0
    18c2:	e7 5a       	subi	r30, 0xA7	; 167
    18c4:	fe 4f       	sbci	r31, 0xFE	; 254
    18c6:	80 83       	st	Z, r24
      TWI_statusReg.lastTransOK = TRUE;                 // Set flag transmission successfully.       
    18c8:	80 91 56 01 	lds	r24, 0x0156	; 0x800156 <TWI_statusReg>
    18cc:	81 60       	ori	r24, 0x01	; 1
    18ce:	80 93 56 01 	sts	0x0156, r24	; 0x800156 <TWI_statusReg>
                                                        // Reset the TWI Interrupt to wait for a new event.
      TWCR = (1<<TWEN)|                                 // TWI Interface enabled
    18d2:	85 ec       	ldi	r24, 0xC5	; 197
    18d4:	80 93 bc 00 	sts	0x00BC, r24	; 0x8000bc <__TEXT_REGION_LENGTH__+0x7e00bc>
             (1<<TWIE)|(1<<TWINT)|                      // Enable TWI Interrupt and clear the flag to send byte
             (1<<TWEA)|(0<<TWSTA)|(0<<TWSTO)|           // Send ACK after next reception
             (0<<TWWC);                                 // 
      TWI_busy = 1;
    18d8:	81 e0       	ldi	r24, 0x01	; 1
    18da:	80 93 57 01 	sts	0x0157, r24	; 0x800157 <TWI_busy>
      break;
    18de:	b2 cf       	rjmp	.-156    	; 0x1844 <__vector_26+0x88>
      break;
    case TWI_STX_DATA_NACK:          // Data byte in TWDR has been transmitted; NACK has been received. 
                                     // I.e. this could be the end of the transmission.
      if (TWI_bufPtr == TWI_msgSize) // Have we transceiver all expected data?
      {
        TWI_statusReg.lastTransOK = TRUE;               // Set status bits to completed successfully. 
    18e0:	80 91 56 01 	lds	r24, 0x0156	; 0x800156 <TWI_statusReg>
    18e4:	81 60       	ori	r24, 0x01	; 1
    18e6:	80 93 56 01 	sts	0x0156, r24	; 0x800156 <TWI_statusReg>
    18ea:	c5 cf       	rjmp	.-118    	; 0x1876 <__vector_26+0xba>

000018ec <acos>:
    18ec:	9f 93       	push	r25
    18ee:	9f 77       	andi	r25, 0x7F	; 127
    18f0:	49 d1       	rcall	.+658    	; 0x1b84 <__fp_arccos>
    18f2:	0f 90       	pop	r0
    18f4:	00 20       	and	r0, r0
    18f6:	3a f4       	brpl	.+14     	; 0x1906 <acos+0x1a>
    18f8:	90 58       	subi	r25, 0x80	; 128
    18fa:	a2 ea       	ldi	r26, 0xA2	; 162
    18fc:	2a ed       	ldi	r18, 0xDA	; 218
    18fe:	3f e0       	ldi	r19, 0x0F	; 15
    1900:	49 e4       	ldi	r20, 0x49	; 73
    1902:	50 e4       	ldi	r21, 0x40	; 64
    1904:	13 d0       	rcall	.+38     	; 0x192c <__addsf3x>
    1906:	e1 c1       	rjmp	.+962    	; 0x1cca <__fp_round>

00001908 <__subsf3>:
    1908:	50 58       	subi	r21, 0x80	; 128

0000190a <__addsf3>:
    190a:	bb 27       	eor	r27, r27
    190c:	aa 27       	eor	r26, r26
    190e:	0e d0       	rcall	.+28     	; 0x192c <__addsf3x>
    1910:	dc c1       	rjmp	.+952    	; 0x1cca <__fp_round>
    1912:	a5 d1       	rcall	.+842    	; 0x1c5e <__fp_pscA>
    1914:	30 f0       	brcs	.+12     	; 0x1922 <__addsf3+0x18>
    1916:	aa d1       	rcall	.+852    	; 0x1c6c <__fp_pscB>
    1918:	20 f0       	brcs	.+8      	; 0x1922 <__addsf3+0x18>
    191a:	31 f4       	brne	.+12     	; 0x1928 <__addsf3+0x1e>
    191c:	9f 3f       	cpi	r25, 0xFF	; 255
    191e:	11 f4       	brne	.+4      	; 0x1924 <__addsf3+0x1a>
    1920:	1e f4       	brtc	.+6      	; 0x1928 <__addsf3+0x1e>
    1922:	75 c1       	rjmp	.+746    	; 0x1c0e <__fp_nan>
    1924:	0e f4       	brtc	.+2      	; 0x1928 <__addsf3+0x1e>
    1926:	e0 95       	com	r30
    1928:	e7 fb       	bst	r30, 7
    192a:	6b c1       	rjmp	.+726    	; 0x1c02 <__fp_inf>

0000192c <__addsf3x>:
    192c:	e9 2f       	mov	r30, r25
    192e:	ef d1       	rcall	.+990    	; 0x1d0e <__fp_split3>
    1930:	80 f3       	brcs	.-32     	; 0x1912 <__addsf3+0x8>
    1932:	ba 17       	cp	r27, r26
    1934:	62 07       	cpc	r22, r18
    1936:	73 07       	cpc	r23, r19
    1938:	84 07       	cpc	r24, r20
    193a:	95 07       	cpc	r25, r21
    193c:	18 f0       	brcs	.+6      	; 0x1944 <__addsf3x+0x18>
    193e:	71 f4       	brne	.+28     	; 0x195c <__addsf3x+0x30>
    1940:	9e f5       	brtc	.+102    	; 0x19a8 <__addsf3x+0x7c>
    1942:	07 c2       	rjmp	.+1038   	; 0x1d52 <__fp_zero>
    1944:	0e f4       	brtc	.+2      	; 0x1948 <__addsf3x+0x1c>
    1946:	e0 95       	com	r30
    1948:	0b 2e       	mov	r0, r27
    194a:	ba 2f       	mov	r27, r26
    194c:	a0 2d       	mov	r26, r0
    194e:	0b 01       	movw	r0, r22
    1950:	b9 01       	movw	r22, r18
    1952:	90 01       	movw	r18, r0
    1954:	0c 01       	movw	r0, r24
    1956:	ca 01       	movw	r24, r20
    1958:	a0 01       	movw	r20, r0
    195a:	11 24       	eor	r1, r1
    195c:	ff 27       	eor	r31, r31
    195e:	59 1b       	sub	r21, r25
    1960:	99 f0       	breq	.+38     	; 0x1988 <__addsf3x+0x5c>
    1962:	59 3f       	cpi	r21, 0xF9	; 249
    1964:	50 f4       	brcc	.+20     	; 0x197a <__addsf3x+0x4e>
    1966:	50 3e       	cpi	r21, 0xE0	; 224
    1968:	68 f1       	brcs	.+90     	; 0x19c4 <__addsf3x+0x98>
    196a:	1a 16       	cp	r1, r26
    196c:	f0 40       	sbci	r31, 0x00	; 0
    196e:	a2 2f       	mov	r26, r18
    1970:	23 2f       	mov	r18, r19
    1972:	34 2f       	mov	r19, r20
    1974:	44 27       	eor	r20, r20
    1976:	58 5f       	subi	r21, 0xF8	; 248
    1978:	f3 cf       	rjmp	.-26     	; 0x1960 <__addsf3x+0x34>
    197a:	46 95       	lsr	r20
    197c:	37 95       	ror	r19
    197e:	27 95       	ror	r18
    1980:	a7 95       	ror	r26
    1982:	f0 40       	sbci	r31, 0x00	; 0
    1984:	53 95       	inc	r21
    1986:	c9 f7       	brne	.-14     	; 0x197a <__addsf3x+0x4e>
    1988:	7e f4       	brtc	.+30     	; 0x19a8 <__addsf3x+0x7c>
    198a:	1f 16       	cp	r1, r31
    198c:	ba 0b       	sbc	r27, r26
    198e:	62 0b       	sbc	r22, r18
    1990:	73 0b       	sbc	r23, r19
    1992:	84 0b       	sbc	r24, r20
    1994:	ba f0       	brmi	.+46     	; 0x19c4 <__addsf3x+0x98>
    1996:	91 50       	subi	r25, 0x01	; 1
    1998:	a1 f0       	breq	.+40     	; 0x19c2 <__addsf3x+0x96>
    199a:	ff 0f       	add	r31, r31
    199c:	bb 1f       	adc	r27, r27
    199e:	66 1f       	adc	r22, r22
    19a0:	77 1f       	adc	r23, r23
    19a2:	88 1f       	adc	r24, r24
    19a4:	c2 f7       	brpl	.-16     	; 0x1996 <__addsf3x+0x6a>
    19a6:	0e c0       	rjmp	.+28     	; 0x19c4 <__addsf3x+0x98>
    19a8:	ba 0f       	add	r27, r26
    19aa:	62 1f       	adc	r22, r18
    19ac:	73 1f       	adc	r23, r19
    19ae:	84 1f       	adc	r24, r20
    19b0:	48 f4       	brcc	.+18     	; 0x19c4 <__addsf3x+0x98>
    19b2:	87 95       	ror	r24
    19b4:	77 95       	ror	r23
    19b6:	67 95       	ror	r22
    19b8:	b7 95       	ror	r27
    19ba:	f7 95       	ror	r31
    19bc:	9e 3f       	cpi	r25, 0xFE	; 254
    19be:	08 f0       	brcs	.+2      	; 0x19c2 <__addsf3x+0x96>
    19c0:	b3 cf       	rjmp	.-154    	; 0x1928 <__addsf3+0x1e>
    19c2:	93 95       	inc	r25
    19c4:	88 0f       	add	r24, r24
    19c6:	08 f0       	brcs	.+2      	; 0x19ca <__addsf3x+0x9e>
    19c8:	99 27       	eor	r25, r25
    19ca:	ee 0f       	add	r30, r30
    19cc:	97 95       	ror	r25
    19ce:	87 95       	ror	r24
    19d0:	08 95       	ret

000019d2 <cos>:
    19d2:	54 d1       	rcall	.+680    	; 0x1c7c <__fp_rempio2>
    19d4:	e3 95       	inc	r30
    19d6:	8a c1       	rjmp	.+788    	; 0x1cec <__fp_sinus>

000019d8 <__divsf3>:
    19d8:	0c d0       	rcall	.+24     	; 0x19f2 <__divsf3x>
    19da:	77 c1       	rjmp	.+750    	; 0x1cca <__fp_round>
    19dc:	47 d1       	rcall	.+654    	; 0x1c6c <__fp_pscB>
    19de:	40 f0       	brcs	.+16     	; 0x19f0 <__divsf3+0x18>
    19e0:	3e d1       	rcall	.+636    	; 0x1c5e <__fp_pscA>
    19e2:	30 f0       	brcs	.+12     	; 0x19f0 <__divsf3+0x18>
    19e4:	21 f4       	brne	.+8      	; 0x19ee <__divsf3+0x16>
    19e6:	5f 3f       	cpi	r21, 0xFF	; 255
    19e8:	19 f0       	breq	.+6      	; 0x19f0 <__divsf3+0x18>
    19ea:	0b c1       	rjmp	.+534    	; 0x1c02 <__fp_inf>
    19ec:	51 11       	cpse	r21, r1
    19ee:	b2 c1       	rjmp	.+868    	; 0x1d54 <__fp_szero>
    19f0:	0e c1       	rjmp	.+540    	; 0x1c0e <__fp_nan>

000019f2 <__divsf3x>:
    19f2:	8d d1       	rcall	.+794    	; 0x1d0e <__fp_split3>
    19f4:	98 f3       	brcs	.-26     	; 0x19dc <__divsf3+0x4>

000019f6 <__divsf3_pse>:
    19f6:	99 23       	and	r25, r25
    19f8:	c9 f3       	breq	.-14     	; 0x19ec <__divsf3+0x14>
    19fa:	55 23       	and	r21, r21
    19fc:	b1 f3       	breq	.-20     	; 0x19ea <__divsf3+0x12>
    19fe:	95 1b       	sub	r25, r21
    1a00:	55 0b       	sbc	r21, r21
    1a02:	bb 27       	eor	r27, r27
    1a04:	aa 27       	eor	r26, r26
    1a06:	62 17       	cp	r22, r18
    1a08:	73 07       	cpc	r23, r19
    1a0a:	84 07       	cpc	r24, r20
    1a0c:	38 f0       	brcs	.+14     	; 0x1a1c <__divsf3_pse+0x26>
    1a0e:	9f 5f       	subi	r25, 0xFF	; 255
    1a10:	5f 4f       	sbci	r21, 0xFF	; 255
    1a12:	22 0f       	add	r18, r18
    1a14:	33 1f       	adc	r19, r19
    1a16:	44 1f       	adc	r20, r20
    1a18:	aa 1f       	adc	r26, r26
    1a1a:	a9 f3       	breq	.-22     	; 0x1a06 <__divsf3_pse+0x10>
    1a1c:	33 d0       	rcall	.+102    	; 0x1a84 <__divsf3_pse+0x8e>
    1a1e:	0e 2e       	mov	r0, r30
    1a20:	3a f0       	brmi	.+14     	; 0x1a30 <__divsf3_pse+0x3a>
    1a22:	e0 e8       	ldi	r30, 0x80	; 128
    1a24:	30 d0       	rcall	.+96     	; 0x1a86 <__divsf3_pse+0x90>
    1a26:	91 50       	subi	r25, 0x01	; 1
    1a28:	50 40       	sbci	r21, 0x00	; 0
    1a2a:	e6 95       	lsr	r30
    1a2c:	00 1c       	adc	r0, r0
    1a2e:	ca f7       	brpl	.-14     	; 0x1a22 <__divsf3_pse+0x2c>
    1a30:	29 d0       	rcall	.+82     	; 0x1a84 <__divsf3_pse+0x8e>
    1a32:	fe 2f       	mov	r31, r30
    1a34:	27 d0       	rcall	.+78     	; 0x1a84 <__divsf3_pse+0x8e>
    1a36:	66 0f       	add	r22, r22
    1a38:	77 1f       	adc	r23, r23
    1a3a:	88 1f       	adc	r24, r24
    1a3c:	bb 1f       	adc	r27, r27
    1a3e:	26 17       	cp	r18, r22
    1a40:	37 07       	cpc	r19, r23
    1a42:	48 07       	cpc	r20, r24
    1a44:	ab 07       	cpc	r26, r27
    1a46:	b0 e8       	ldi	r27, 0x80	; 128
    1a48:	09 f0       	breq	.+2      	; 0x1a4c <__divsf3_pse+0x56>
    1a4a:	bb 0b       	sbc	r27, r27
    1a4c:	80 2d       	mov	r24, r0
    1a4e:	bf 01       	movw	r22, r30
    1a50:	ff 27       	eor	r31, r31
    1a52:	93 58       	subi	r25, 0x83	; 131
    1a54:	5f 4f       	sbci	r21, 0xFF	; 255
    1a56:	2a f0       	brmi	.+10     	; 0x1a62 <__divsf3_pse+0x6c>
    1a58:	9e 3f       	cpi	r25, 0xFE	; 254
    1a5a:	51 05       	cpc	r21, r1
    1a5c:	68 f0       	brcs	.+26     	; 0x1a78 <__divsf3_pse+0x82>
    1a5e:	d1 c0       	rjmp	.+418    	; 0x1c02 <__fp_inf>
    1a60:	79 c1       	rjmp	.+754    	; 0x1d54 <__fp_szero>
    1a62:	5f 3f       	cpi	r21, 0xFF	; 255
    1a64:	ec f3       	brlt	.-6      	; 0x1a60 <__divsf3_pse+0x6a>
    1a66:	98 3e       	cpi	r25, 0xE8	; 232
    1a68:	dc f3       	brlt	.-10     	; 0x1a60 <__divsf3_pse+0x6a>
    1a6a:	86 95       	lsr	r24
    1a6c:	77 95       	ror	r23
    1a6e:	67 95       	ror	r22
    1a70:	b7 95       	ror	r27
    1a72:	f7 95       	ror	r31
    1a74:	9f 5f       	subi	r25, 0xFF	; 255
    1a76:	c9 f7       	brne	.-14     	; 0x1a6a <__divsf3_pse+0x74>
    1a78:	88 0f       	add	r24, r24
    1a7a:	91 1d       	adc	r25, r1
    1a7c:	96 95       	lsr	r25
    1a7e:	87 95       	ror	r24
    1a80:	97 f9       	bld	r25, 7
    1a82:	08 95       	ret
    1a84:	e1 e0       	ldi	r30, 0x01	; 1
    1a86:	66 0f       	add	r22, r22
    1a88:	77 1f       	adc	r23, r23
    1a8a:	88 1f       	adc	r24, r24
    1a8c:	bb 1f       	adc	r27, r27
    1a8e:	62 17       	cp	r22, r18
    1a90:	73 07       	cpc	r23, r19
    1a92:	84 07       	cpc	r24, r20
    1a94:	ba 07       	cpc	r27, r26
    1a96:	20 f0       	brcs	.+8      	; 0x1aa0 <__divsf3_pse+0xaa>
    1a98:	62 1b       	sub	r22, r18
    1a9a:	73 0b       	sbc	r23, r19
    1a9c:	84 0b       	sbc	r24, r20
    1a9e:	ba 0b       	sbc	r27, r26
    1aa0:	ee 1f       	adc	r30, r30
    1aa2:	88 f7       	brcc	.-30     	; 0x1a86 <__divsf3_pse+0x90>
    1aa4:	e0 95       	com	r30
    1aa6:	08 95       	ret

00001aa8 <__fixsfsi>:
    1aa8:	04 d0       	rcall	.+8      	; 0x1ab2 <__fixunssfsi>
    1aaa:	68 94       	set
    1aac:	b1 11       	cpse	r27, r1
    1aae:	52 c1       	rjmp	.+676    	; 0x1d54 <__fp_szero>
    1ab0:	08 95       	ret

00001ab2 <__fixunssfsi>:
    1ab2:	35 d1       	rcall	.+618    	; 0x1d1e <__fp_splitA>
    1ab4:	88 f0       	brcs	.+34     	; 0x1ad8 <__fixunssfsi+0x26>
    1ab6:	9f 57       	subi	r25, 0x7F	; 127
    1ab8:	90 f0       	brcs	.+36     	; 0x1ade <__fixunssfsi+0x2c>
    1aba:	b9 2f       	mov	r27, r25
    1abc:	99 27       	eor	r25, r25
    1abe:	b7 51       	subi	r27, 0x17	; 23
    1ac0:	a0 f0       	brcs	.+40     	; 0x1aea <__fixunssfsi+0x38>
    1ac2:	d1 f0       	breq	.+52     	; 0x1af8 <__fixunssfsi+0x46>
    1ac4:	66 0f       	add	r22, r22
    1ac6:	77 1f       	adc	r23, r23
    1ac8:	88 1f       	adc	r24, r24
    1aca:	99 1f       	adc	r25, r25
    1acc:	1a f0       	brmi	.+6      	; 0x1ad4 <__fixunssfsi+0x22>
    1ace:	ba 95       	dec	r27
    1ad0:	c9 f7       	brne	.-14     	; 0x1ac4 <__fixunssfsi+0x12>
    1ad2:	12 c0       	rjmp	.+36     	; 0x1af8 <__fixunssfsi+0x46>
    1ad4:	b1 30       	cpi	r27, 0x01	; 1
    1ad6:	81 f0       	breq	.+32     	; 0x1af8 <__fixunssfsi+0x46>
    1ad8:	3c d1       	rcall	.+632    	; 0x1d52 <__fp_zero>
    1ada:	b1 e0       	ldi	r27, 0x01	; 1
    1adc:	08 95       	ret
    1ade:	39 c1       	rjmp	.+626    	; 0x1d52 <__fp_zero>
    1ae0:	67 2f       	mov	r22, r23
    1ae2:	78 2f       	mov	r23, r24
    1ae4:	88 27       	eor	r24, r24
    1ae6:	b8 5f       	subi	r27, 0xF8	; 248
    1ae8:	39 f0       	breq	.+14     	; 0x1af8 <__fixunssfsi+0x46>
    1aea:	b9 3f       	cpi	r27, 0xF9	; 249
    1aec:	cc f3       	brlt	.-14     	; 0x1ae0 <__fixunssfsi+0x2e>
    1aee:	86 95       	lsr	r24
    1af0:	77 95       	ror	r23
    1af2:	67 95       	ror	r22
    1af4:	b3 95       	inc	r27
    1af6:	d9 f7       	brne	.-10     	; 0x1aee <__fixunssfsi+0x3c>
    1af8:	3e f4       	brtc	.+14     	; 0x1b08 <__fixunssfsi+0x56>
    1afa:	90 95       	com	r25
    1afc:	80 95       	com	r24
    1afe:	70 95       	com	r23
    1b00:	61 95       	neg	r22
    1b02:	7f 4f       	sbci	r23, 0xFF	; 255
    1b04:	8f 4f       	sbci	r24, 0xFF	; 255
    1b06:	9f 4f       	sbci	r25, 0xFF	; 255
    1b08:	08 95       	ret

00001b0a <__floatunsisf>:
    1b0a:	e8 94       	clt
    1b0c:	09 c0       	rjmp	.+18     	; 0x1b20 <__floatsisf+0x12>

00001b0e <__floatsisf>:
    1b0e:	97 fb       	bst	r25, 7
    1b10:	3e f4       	brtc	.+14     	; 0x1b20 <__floatsisf+0x12>
    1b12:	90 95       	com	r25
    1b14:	80 95       	com	r24
    1b16:	70 95       	com	r23
    1b18:	61 95       	neg	r22
    1b1a:	7f 4f       	sbci	r23, 0xFF	; 255
    1b1c:	8f 4f       	sbci	r24, 0xFF	; 255
    1b1e:	9f 4f       	sbci	r25, 0xFF	; 255
    1b20:	99 23       	and	r25, r25
    1b22:	a9 f0       	breq	.+42     	; 0x1b4e <__floatsisf+0x40>
    1b24:	f9 2f       	mov	r31, r25
    1b26:	96 e9       	ldi	r25, 0x96	; 150
    1b28:	bb 27       	eor	r27, r27
    1b2a:	93 95       	inc	r25
    1b2c:	f6 95       	lsr	r31
    1b2e:	87 95       	ror	r24
    1b30:	77 95       	ror	r23
    1b32:	67 95       	ror	r22
    1b34:	b7 95       	ror	r27
    1b36:	f1 11       	cpse	r31, r1
    1b38:	f8 cf       	rjmp	.-16     	; 0x1b2a <__floatsisf+0x1c>
    1b3a:	fa f4       	brpl	.+62     	; 0x1b7a <__floatsisf+0x6c>
    1b3c:	bb 0f       	add	r27, r27
    1b3e:	11 f4       	brne	.+4      	; 0x1b44 <__floatsisf+0x36>
    1b40:	60 ff       	sbrs	r22, 0
    1b42:	1b c0       	rjmp	.+54     	; 0x1b7a <__floatsisf+0x6c>
    1b44:	6f 5f       	subi	r22, 0xFF	; 255
    1b46:	7f 4f       	sbci	r23, 0xFF	; 255
    1b48:	8f 4f       	sbci	r24, 0xFF	; 255
    1b4a:	9f 4f       	sbci	r25, 0xFF	; 255
    1b4c:	16 c0       	rjmp	.+44     	; 0x1b7a <__floatsisf+0x6c>
    1b4e:	88 23       	and	r24, r24
    1b50:	11 f0       	breq	.+4      	; 0x1b56 <__floatsisf+0x48>
    1b52:	96 e9       	ldi	r25, 0x96	; 150
    1b54:	11 c0       	rjmp	.+34     	; 0x1b78 <__floatsisf+0x6a>
    1b56:	77 23       	and	r23, r23
    1b58:	21 f0       	breq	.+8      	; 0x1b62 <__floatsisf+0x54>
    1b5a:	9e e8       	ldi	r25, 0x8E	; 142
    1b5c:	87 2f       	mov	r24, r23
    1b5e:	76 2f       	mov	r23, r22
    1b60:	05 c0       	rjmp	.+10     	; 0x1b6c <__floatsisf+0x5e>
    1b62:	66 23       	and	r22, r22
    1b64:	71 f0       	breq	.+28     	; 0x1b82 <__floatsisf+0x74>
    1b66:	96 e8       	ldi	r25, 0x86	; 134
    1b68:	86 2f       	mov	r24, r22
    1b6a:	70 e0       	ldi	r23, 0x00	; 0
    1b6c:	60 e0       	ldi	r22, 0x00	; 0
    1b6e:	2a f0       	brmi	.+10     	; 0x1b7a <__floatsisf+0x6c>
    1b70:	9a 95       	dec	r25
    1b72:	66 0f       	add	r22, r22
    1b74:	77 1f       	adc	r23, r23
    1b76:	88 1f       	adc	r24, r24
    1b78:	da f7       	brpl	.-10     	; 0x1b70 <__floatsisf+0x62>
    1b7a:	88 0f       	add	r24, r24
    1b7c:	96 95       	lsr	r25
    1b7e:	87 95       	ror	r24
    1b80:	97 f9       	bld	r25, 7
    1b82:	08 95       	ret

00001b84 <__fp_arccos>:
    1b84:	df 93       	push	r29
    1b86:	cf 93       	push	r28
    1b88:	1f 93       	push	r17
    1b8a:	0f 93       	push	r16
    1b8c:	8b 01       	movw	r16, r22
    1b8e:	ec 01       	movw	r28, r24
    1b90:	ec e8       	ldi	r30, 0x8C	; 140
    1b92:	f0 e0       	ldi	r31, 0x00	; 0
    1b94:	3f d0       	rcall	.+126    	; 0x1c14 <__fp_powser>
    1b96:	99 d0       	rcall	.+306    	; 0x1cca <__fp_round>
    1b98:	98 01       	movw	r18, r16
    1b9a:	ae 01       	movw	r20, r28
    1b9c:	8b 01       	movw	r16, r22
    1b9e:	ec 01       	movw	r28, r24
    1ba0:	60 e0       	ldi	r22, 0x00	; 0
    1ba2:	70 e0       	ldi	r23, 0x00	; 0
    1ba4:	80 e8       	ldi	r24, 0x80	; 128
    1ba6:	9f e3       	ldi	r25, 0x3F	; 63
    1ba8:	af de       	rcall	.-674    	; 0x1908 <__subsf3>
    1baa:	a5 d1       	rcall	.+842    	; 0x1ef6 <sqrt>
    1bac:	98 01       	movw	r18, r16
    1bae:	ae 01       	movw	r20, r28
    1bb0:	0f 91       	pop	r16
    1bb2:	1f 91       	pop	r17
    1bb4:	cf 91       	pop	r28
    1bb6:	df 91       	pop	r29
    1bb8:	1d c1       	rjmp	.+570    	; 0x1df4 <__mulsf3x>

00001bba <__fp_cmp>:
    1bba:	99 0f       	add	r25, r25
    1bbc:	00 08       	sbc	r0, r0
    1bbe:	55 0f       	add	r21, r21
    1bc0:	aa 0b       	sbc	r26, r26
    1bc2:	e0 e8       	ldi	r30, 0x80	; 128
    1bc4:	fe ef       	ldi	r31, 0xFE	; 254
    1bc6:	16 16       	cp	r1, r22
    1bc8:	17 06       	cpc	r1, r23
    1bca:	e8 07       	cpc	r30, r24
    1bcc:	f9 07       	cpc	r31, r25
    1bce:	c0 f0       	brcs	.+48     	; 0x1c00 <__fp_cmp+0x46>
    1bd0:	12 16       	cp	r1, r18
    1bd2:	13 06       	cpc	r1, r19
    1bd4:	e4 07       	cpc	r30, r20
    1bd6:	f5 07       	cpc	r31, r21
    1bd8:	98 f0       	brcs	.+38     	; 0x1c00 <__fp_cmp+0x46>
    1bda:	62 1b       	sub	r22, r18
    1bdc:	73 0b       	sbc	r23, r19
    1bde:	84 0b       	sbc	r24, r20
    1be0:	95 0b       	sbc	r25, r21
    1be2:	39 f4       	brne	.+14     	; 0x1bf2 <__fp_cmp+0x38>
    1be4:	0a 26       	eor	r0, r26
    1be6:	61 f0       	breq	.+24     	; 0x1c00 <__fp_cmp+0x46>
    1be8:	23 2b       	or	r18, r19
    1bea:	24 2b       	or	r18, r20
    1bec:	25 2b       	or	r18, r21
    1bee:	21 f4       	brne	.+8      	; 0x1bf8 <__fp_cmp+0x3e>
    1bf0:	08 95       	ret
    1bf2:	0a 26       	eor	r0, r26
    1bf4:	09 f4       	brne	.+2      	; 0x1bf8 <__fp_cmp+0x3e>
    1bf6:	a1 40       	sbci	r26, 0x01	; 1
    1bf8:	a6 95       	lsr	r26
    1bfa:	8f ef       	ldi	r24, 0xFF	; 255
    1bfc:	81 1d       	adc	r24, r1
    1bfe:	81 1d       	adc	r24, r1
    1c00:	08 95       	ret

00001c02 <__fp_inf>:
    1c02:	97 f9       	bld	r25, 7
    1c04:	9f 67       	ori	r25, 0x7F	; 127
    1c06:	80 e8       	ldi	r24, 0x80	; 128
    1c08:	70 e0       	ldi	r23, 0x00	; 0
    1c0a:	60 e0       	ldi	r22, 0x00	; 0
    1c0c:	08 95       	ret

00001c0e <__fp_nan>:
    1c0e:	9f ef       	ldi	r25, 0xFF	; 255
    1c10:	80 ec       	ldi	r24, 0xC0	; 192
    1c12:	08 95       	ret

00001c14 <__fp_powser>:
    1c14:	df 93       	push	r29
    1c16:	cf 93       	push	r28
    1c18:	1f 93       	push	r17
    1c1a:	0f 93       	push	r16
    1c1c:	ff 92       	push	r15
    1c1e:	ef 92       	push	r14
    1c20:	df 92       	push	r13
    1c22:	7b 01       	movw	r14, r22
    1c24:	8c 01       	movw	r16, r24
    1c26:	68 94       	set
    1c28:	05 c0       	rjmp	.+10     	; 0x1c34 <__fp_powser+0x20>
    1c2a:	da 2e       	mov	r13, r26
    1c2c:	ef 01       	movw	r28, r30
    1c2e:	e2 d0       	rcall	.+452    	; 0x1df4 <__mulsf3x>
    1c30:	fe 01       	movw	r30, r28
    1c32:	e8 94       	clt
    1c34:	a5 91       	lpm	r26, Z+
    1c36:	25 91       	lpm	r18, Z+
    1c38:	35 91       	lpm	r19, Z+
    1c3a:	45 91       	lpm	r20, Z+
    1c3c:	55 91       	lpm	r21, Z+
    1c3e:	ae f3       	brts	.-22     	; 0x1c2a <__fp_powser+0x16>
    1c40:	ef 01       	movw	r28, r30
    1c42:	74 de       	rcall	.-792    	; 0x192c <__addsf3x>
    1c44:	fe 01       	movw	r30, r28
    1c46:	97 01       	movw	r18, r14
    1c48:	a8 01       	movw	r20, r16
    1c4a:	da 94       	dec	r13
    1c4c:	79 f7       	brne	.-34     	; 0x1c2c <__fp_powser+0x18>
    1c4e:	df 90       	pop	r13
    1c50:	ef 90       	pop	r14
    1c52:	ff 90       	pop	r15
    1c54:	0f 91       	pop	r16
    1c56:	1f 91       	pop	r17
    1c58:	cf 91       	pop	r28
    1c5a:	df 91       	pop	r29
    1c5c:	08 95       	ret

00001c5e <__fp_pscA>:
    1c5e:	00 24       	eor	r0, r0
    1c60:	0a 94       	dec	r0
    1c62:	16 16       	cp	r1, r22
    1c64:	17 06       	cpc	r1, r23
    1c66:	18 06       	cpc	r1, r24
    1c68:	09 06       	cpc	r0, r25
    1c6a:	08 95       	ret

00001c6c <__fp_pscB>:
    1c6c:	00 24       	eor	r0, r0
    1c6e:	0a 94       	dec	r0
    1c70:	12 16       	cp	r1, r18
    1c72:	13 06       	cpc	r1, r19
    1c74:	14 06       	cpc	r1, r20
    1c76:	05 06       	cpc	r0, r21
    1c78:	08 95       	ret
    1c7a:	c9 cf       	rjmp	.-110    	; 0x1c0e <__fp_nan>

00001c7c <__fp_rempio2>:
    1c7c:	50 d0       	rcall	.+160    	; 0x1d1e <__fp_splitA>
    1c7e:	e8 f3       	brcs	.-6      	; 0x1c7a <__fp_pscB+0xe>
    1c80:	e8 94       	clt
    1c82:	e0 e0       	ldi	r30, 0x00	; 0
    1c84:	bb 27       	eor	r27, r27
    1c86:	9f 57       	subi	r25, 0x7F	; 127
    1c88:	f0 f0       	brcs	.+60     	; 0x1cc6 <__fp_rempio2+0x4a>
    1c8a:	2a ed       	ldi	r18, 0xDA	; 218
    1c8c:	3f e0       	ldi	r19, 0x0F	; 15
    1c8e:	49 ec       	ldi	r20, 0xC9	; 201
    1c90:	06 c0       	rjmp	.+12     	; 0x1c9e <__fp_rempio2+0x22>
    1c92:	ee 0f       	add	r30, r30
    1c94:	bb 0f       	add	r27, r27
    1c96:	66 1f       	adc	r22, r22
    1c98:	77 1f       	adc	r23, r23
    1c9a:	88 1f       	adc	r24, r24
    1c9c:	28 f0       	brcs	.+10     	; 0x1ca8 <__fp_rempio2+0x2c>
    1c9e:	b2 3a       	cpi	r27, 0xA2	; 162
    1ca0:	62 07       	cpc	r22, r18
    1ca2:	73 07       	cpc	r23, r19
    1ca4:	84 07       	cpc	r24, r20
    1ca6:	28 f0       	brcs	.+10     	; 0x1cb2 <__fp_rempio2+0x36>
    1ca8:	b2 5a       	subi	r27, 0xA2	; 162
    1caa:	62 0b       	sbc	r22, r18
    1cac:	73 0b       	sbc	r23, r19
    1cae:	84 0b       	sbc	r24, r20
    1cb0:	e3 95       	inc	r30
    1cb2:	9a 95       	dec	r25
    1cb4:	72 f7       	brpl	.-36     	; 0x1c92 <__fp_rempio2+0x16>
    1cb6:	80 38       	cpi	r24, 0x80	; 128
    1cb8:	30 f4       	brcc	.+12     	; 0x1cc6 <__fp_rempio2+0x4a>
    1cba:	9a 95       	dec	r25
    1cbc:	bb 0f       	add	r27, r27
    1cbe:	66 1f       	adc	r22, r22
    1cc0:	77 1f       	adc	r23, r23
    1cc2:	88 1f       	adc	r24, r24
    1cc4:	d2 f7       	brpl	.-12     	; 0x1cba <__fp_rempio2+0x3e>
    1cc6:	90 48       	sbci	r25, 0x80	; 128
    1cc8:	71 c1       	rjmp	.+738    	; 0x1fac <__fp_mpack_finite>

00001cca <__fp_round>:
    1cca:	09 2e       	mov	r0, r25
    1ccc:	03 94       	inc	r0
    1cce:	00 0c       	add	r0, r0
    1cd0:	11 f4       	brne	.+4      	; 0x1cd6 <__fp_round+0xc>
    1cd2:	88 23       	and	r24, r24
    1cd4:	52 f0       	brmi	.+20     	; 0x1cea <__fp_round+0x20>
    1cd6:	bb 0f       	add	r27, r27
    1cd8:	40 f4       	brcc	.+16     	; 0x1cea <__fp_round+0x20>
    1cda:	bf 2b       	or	r27, r31
    1cdc:	11 f4       	brne	.+4      	; 0x1ce2 <__fp_round+0x18>
    1cde:	60 ff       	sbrs	r22, 0
    1ce0:	04 c0       	rjmp	.+8      	; 0x1cea <__fp_round+0x20>
    1ce2:	6f 5f       	subi	r22, 0xFF	; 255
    1ce4:	7f 4f       	sbci	r23, 0xFF	; 255
    1ce6:	8f 4f       	sbci	r24, 0xFF	; 255
    1ce8:	9f 4f       	sbci	r25, 0xFF	; 255
    1cea:	08 95       	ret

00001cec <__fp_sinus>:
    1cec:	ef 93       	push	r30
    1cee:	e0 ff       	sbrs	r30, 0
    1cf0:	06 c0       	rjmp	.+12     	; 0x1cfe <__fp_sinus+0x12>
    1cf2:	a2 ea       	ldi	r26, 0xA2	; 162
    1cf4:	2a ed       	ldi	r18, 0xDA	; 218
    1cf6:	3f e0       	ldi	r19, 0x0F	; 15
    1cf8:	49 ec       	ldi	r20, 0xC9	; 201
    1cfa:	5f eb       	ldi	r21, 0xBF	; 191
    1cfc:	17 de       	rcall	.-978    	; 0x192c <__addsf3x>
    1cfe:	e5 df       	rcall	.-54     	; 0x1cca <__fp_round>
    1d00:	0f 90       	pop	r0
    1d02:	03 94       	inc	r0
    1d04:	01 fc       	sbrc	r0, 1
    1d06:	90 58       	subi	r25, 0x80	; 128
    1d08:	e4 eb       	ldi	r30, 0xB4	; 180
    1d0a:	f0 e0       	ldi	r31, 0x00	; 0
    1d0c:	62 c1       	rjmp	.+708    	; 0x1fd2 <__fp_powsodd>

00001d0e <__fp_split3>:
    1d0e:	57 fd       	sbrc	r21, 7
    1d10:	90 58       	subi	r25, 0x80	; 128
    1d12:	44 0f       	add	r20, r20
    1d14:	55 1f       	adc	r21, r21
    1d16:	59 f0       	breq	.+22     	; 0x1d2e <__fp_splitA+0x10>
    1d18:	5f 3f       	cpi	r21, 0xFF	; 255
    1d1a:	71 f0       	breq	.+28     	; 0x1d38 <__fp_splitA+0x1a>
    1d1c:	47 95       	ror	r20

00001d1e <__fp_splitA>:
    1d1e:	88 0f       	add	r24, r24
    1d20:	97 fb       	bst	r25, 7
    1d22:	99 1f       	adc	r25, r25
    1d24:	61 f0       	breq	.+24     	; 0x1d3e <__fp_splitA+0x20>
    1d26:	9f 3f       	cpi	r25, 0xFF	; 255
    1d28:	79 f0       	breq	.+30     	; 0x1d48 <__fp_splitA+0x2a>
    1d2a:	87 95       	ror	r24
    1d2c:	08 95       	ret
    1d2e:	12 16       	cp	r1, r18
    1d30:	13 06       	cpc	r1, r19
    1d32:	14 06       	cpc	r1, r20
    1d34:	55 1f       	adc	r21, r21
    1d36:	f2 cf       	rjmp	.-28     	; 0x1d1c <__fp_split3+0xe>
    1d38:	46 95       	lsr	r20
    1d3a:	f1 df       	rcall	.-30     	; 0x1d1e <__fp_splitA>
    1d3c:	08 c0       	rjmp	.+16     	; 0x1d4e <__fp_splitA+0x30>
    1d3e:	16 16       	cp	r1, r22
    1d40:	17 06       	cpc	r1, r23
    1d42:	18 06       	cpc	r1, r24
    1d44:	99 1f       	adc	r25, r25
    1d46:	f1 cf       	rjmp	.-30     	; 0x1d2a <__fp_splitA+0xc>
    1d48:	86 95       	lsr	r24
    1d4a:	71 05       	cpc	r23, r1
    1d4c:	61 05       	cpc	r22, r1
    1d4e:	08 94       	sec
    1d50:	08 95       	ret

00001d52 <__fp_zero>:
    1d52:	e8 94       	clt

00001d54 <__fp_szero>:
    1d54:	bb 27       	eor	r27, r27
    1d56:	66 27       	eor	r22, r22
    1d58:	77 27       	eor	r23, r23
    1d5a:	cb 01       	movw	r24, r22
    1d5c:	97 f9       	bld	r25, 7
    1d5e:	08 95       	ret

00001d60 <__gesf2>:
    1d60:	2c df       	rcall	.-424    	; 0x1bba <__fp_cmp>
    1d62:	08 f4       	brcc	.+2      	; 0x1d66 <__gesf2+0x6>
    1d64:	8f ef       	ldi	r24, 0xFF	; 255
    1d66:	08 95       	ret

00001d68 <lrint>:
    1d68:	da df       	rcall	.-76     	; 0x1d1e <__fp_splitA>
    1d6a:	a8 f1       	brcs	.+106    	; 0x1dd6 <lrint+0x6e>
    1d6c:	9e 57       	subi	r25, 0x7E	; 126
    1d6e:	a8 f1       	brcs	.+106    	; 0x1dda <lrint+0x72>
    1d70:	98 51       	subi	r25, 0x18	; 24
    1d72:	60 f0       	brcs	.+24     	; 0x1d8c <lrint+0x24>
    1d74:	39 f1       	breq	.+78     	; 0x1dc4 <lrint+0x5c>
    1d76:	98 30       	cpi	r25, 0x08	; 8
    1d78:	70 f5       	brcc	.+92     	; 0x1dd6 <lrint+0x6e>
    1d7a:	09 2e       	mov	r0, r25
    1d7c:	99 27       	eor	r25, r25
    1d7e:	66 0f       	add	r22, r22
    1d80:	77 1f       	adc	r23, r23
    1d82:	88 1f       	adc	r24, r24
    1d84:	99 1f       	adc	r25, r25
    1d86:	0a 94       	dec	r0
    1d88:	d1 f7       	brne	.-12     	; 0x1d7e <lrint+0x16>
    1d8a:	1c c0       	rjmp	.+56     	; 0x1dc4 <lrint+0x5c>
    1d8c:	bb 27       	eor	r27, r27
    1d8e:	99 3f       	cpi	r25, 0xF9	; 249
    1d90:	4c f4       	brge	.+18     	; 0x1da4 <lrint+0x3c>
    1d92:	b1 11       	cpse	r27, r1
    1d94:	b1 e0       	ldi	r27, 0x01	; 1
    1d96:	b6 2b       	or	r27, r22
    1d98:	67 2f       	mov	r22, r23
    1d9a:	78 2f       	mov	r23, r24
    1d9c:	88 27       	eor	r24, r24
    1d9e:	98 5f       	subi	r25, 0xF8	; 248
    1da0:	b1 f7       	brne	.-20     	; 0x1d8e <lrint+0x26>
    1da2:	08 c0       	rjmp	.+16     	; 0x1db4 <lrint+0x4c>
    1da4:	86 95       	lsr	r24
    1da6:	77 95       	ror	r23
    1da8:	67 95       	ror	r22
    1daa:	b7 95       	ror	r27
    1dac:	08 f4       	brcc	.+2      	; 0x1db0 <lrint+0x48>
    1dae:	b1 60       	ori	r27, 0x01	; 1
    1db0:	93 95       	inc	r25
    1db2:	c1 f7       	brne	.-16     	; 0x1da4 <lrint+0x3c>
    1db4:	bb 0f       	add	r27, r27
    1db6:	30 f4       	brcc	.+12     	; 0x1dc4 <lrint+0x5c>
    1db8:	11 f4       	brne	.+4      	; 0x1dbe <lrint+0x56>
    1dba:	60 ff       	sbrs	r22, 0
    1dbc:	03 c0       	rjmp	.+6      	; 0x1dc4 <lrint+0x5c>
    1dbe:	6f 5f       	subi	r22, 0xFF	; 255
    1dc0:	7f 4f       	sbci	r23, 0xFF	; 255
    1dc2:	8f 4f       	sbci	r24, 0xFF	; 255
    1dc4:	3e f4       	brtc	.+14     	; 0x1dd4 <lrint+0x6c>
    1dc6:	90 95       	com	r25
    1dc8:	80 95       	com	r24
    1dca:	70 95       	com	r23
    1dcc:	61 95       	neg	r22
    1dce:	7f 4f       	sbci	r23, 0xFF	; 255
    1dd0:	8f 4f       	sbci	r24, 0xFF	; 255
    1dd2:	9f 4f       	sbci	r25, 0xFF	; 255
    1dd4:	08 95       	ret
    1dd6:	68 94       	set
    1dd8:	bd cf       	rjmp	.-134    	; 0x1d54 <__fp_szero>
    1dda:	bb cf       	rjmp	.-138    	; 0x1d52 <__fp_zero>

00001ddc <__mulsf3>:
    1ddc:	0b d0       	rcall	.+22     	; 0x1df4 <__mulsf3x>
    1dde:	75 cf       	rjmp	.-278    	; 0x1cca <__fp_round>
    1de0:	3e df       	rcall	.-388    	; 0x1c5e <__fp_pscA>
    1de2:	28 f0       	brcs	.+10     	; 0x1dee <__mulsf3+0x12>
    1de4:	43 df       	rcall	.-378    	; 0x1c6c <__fp_pscB>
    1de6:	18 f0       	brcs	.+6      	; 0x1dee <__mulsf3+0x12>
    1de8:	95 23       	and	r25, r21
    1dea:	09 f0       	breq	.+2      	; 0x1dee <__mulsf3+0x12>
    1dec:	0a cf       	rjmp	.-492    	; 0x1c02 <__fp_inf>
    1dee:	0f cf       	rjmp	.-482    	; 0x1c0e <__fp_nan>
    1df0:	11 24       	eor	r1, r1
    1df2:	b0 cf       	rjmp	.-160    	; 0x1d54 <__fp_szero>

00001df4 <__mulsf3x>:
    1df4:	8c df       	rcall	.-232    	; 0x1d0e <__fp_split3>
    1df6:	a0 f3       	brcs	.-24     	; 0x1de0 <__mulsf3+0x4>

00001df8 <__mulsf3_pse>:
    1df8:	95 9f       	mul	r25, r21
    1dfa:	d1 f3       	breq	.-12     	; 0x1df0 <__mulsf3+0x14>
    1dfc:	95 0f       	add	r25, r21
    1dfe:	50 e0       	ldi	r21, 0x00	; 0
    1e00:	55 1f       	adc	r21, r21
    1e02:	62 9f       	mul	r22, r18
    1e04:	f0 01       	movw	r30, r0
    1e06:	72 9f       	mul	r23, r18
    1e08:	bb 27       	eor	r27, r27
    1e0a:	f0 0d       	add	r31, r0
    1e0c:	b1 1d       	adc	r27, r1
    1e0e:	63 9f       	mul	r22, r19
    1e10:	aa 27       	eor	r26, r26
    1e12:	f0 0d       	add	r31, r0
    1e14:	b1 1d       	adc	r27, r1
    1e16:	aa 1f       	adc	r26, r26
    1e18:	64 9f       	mul	r22, r20
    1e1a:	66 27       	eor	r22, r22
    1e1c:	b0 0d       	add	r27, r0
    1e1e:	a1 1d       	adc	r26, r1
    1e20:	66 1f       	adc	r22, r22
    1e22:	82 9f       	mul	r24, r18
    1e24:	22 27       	eor	r18, r18
    1e26:	b0 0d       	add	r27, r0
    1e28:	a1 1d       	adc	r26, r1
    1e2a:	62 1f       	adc	r22, r18
    1e2c:	73 9f       	mul	r23, r19
    1e2e:	b0 0d       	add	r27, r0
    1e30:	a1 1d       	adc	r26, r1
    1e32:	62 1f       	adc	r22, r18
    1e34:	83 9f       	mul	r24, r19
    1e36:	a0 0d       	add	r26, r0
    1e38:	61 1d       	adc	r22, r1
    1e3a:	22 1f       	adc	r18, r18
    1e3c:	74 9f       	mul	r23, r20
    1e3e:	33 27       	eor	r19, r19
    1e40:	a0 0d       	add	r26, r0
    1e42:	61 1d       	adc	r22, r1
    1e44:	23 1f       	adc	r18, r19
    1e46:	84 9f       	mul	r24, r20
    1e48:	60 0d       	add	r22, r0
    1e4a:	21 1d       	adc	r18, r1
    1e4c:	82 2f       	mov	r24, r18
    1e4e:	76 2f       	mov	r23, r22
    1e50:	6a 2f       	mov	r22, r26
    1e52:	11 24       	eor	r1, r1
    1e54:	9f 57       	subi	r25, 0x7F	; 127
    1e56:	50 40       	sbci	r21, 0x00	; 0
    1e58:	8a f0       	brmi	.+34     	; 0x1e7c <__mulsf3_pse+0x84>
    1e5a:	e1 f0       	breq	.+56     	; 0x1e94 <__mulsf3_pse+0x9c>
    1e5c:	88 23       	and	r24, r24
    1e5e:	4a f0       	brmi	.+18     	; 0x1e72 <__mulsf3_pse+0x7a>
    1e60:	ee 0f       	add	r30, r30
    1e62:	ff 1f       	adc	r31, r31
    1e64:	bb 1f       	adc	r27, r27
    1e66:	66 1f       	adc	r22, r22
    1e68:	77 1f       	adc	r23, r23
    1e6a:	88 1f       	adc	r24, r24
    1e6c:	91 50       	subi	r25, 0x01	; 1
    1e6e:	50 40       	sbci	r21, 0x00	; 0
    1e70:	a9 f7       	brne	.-22     	; 0x1e5c <__mulsf3_pse+0x64>
    1e72:	9e 3f       	cpi	r25, 0xFE	; 254
    1e74:	51 05       	cpc	r21, r1
    1e76:	70 f0       	brcs	.+28     	; 0x1e94 <__mulsf3_pse+0x9c>
    1e78:	c4 ce       	rjmp	.-632    	; 0x1c02 <__fp_inf>
    1e7a:	6c cf       	rjmp	.-296    	; 0x1d54 <__fp_szero>
    1e7c:	5f 3f       	cpi	r21, 0xFF	; 255
    1e7e:	ec f3       	brlt	.-6      	; 0x1e7a <__mulsf3_pse+0x82>
    1e80:	98 3e       	cpi	r25, 0xE8	; 232
    1e82:	dc f3       	brlt	.-10     	; 0x1e7a <__mulsf3_pse+0x82>
    1e84:	86 95       	lsr	r24
    1e86:	77 95       	ror	r23
    1e88:	67 95       	ror	r22
    1e8a:	b7 95       	ror	r27
    1e8c:	f7 95       	ror	r31
    1e8e:	e7 95       	ror	r30
    1e90:	9f 5f       	subi	r25, 0xFF	; 255
    1e92:	c1 f7       	brne	.-16     	; 0x1e84 <__mulsf3_pse+0x8c>
    1e94:	fe 2b       	or	r31, r30
    1e96:	88 0f       	add	r24, r24
    1e98:	91 1d       	adc	r25, r1
    1e9a:	96 95       	lsr	r25
    1e9c:	87 95       	ror	r24
    1e9e:	97 f9       	bld	r25, 7
    1ea0:	08 95       	ret

00001ea2 <round>:
    1ea2:	3d df       	rcall	.-390    	; 0x1d1e <__fp_splitA>
    1ea4:	e0 f0       	brcs	.+56     	; 0x1ede <round+0x3c>
    1ea6:	9e 37       	cpi	r25, 0x7E	; 126
    1ea8:	d8 f0       	brcs	.+54     	; 0x1ee0 <round+0x3e>
    1eaa:	96 39       	cpi	r25, 0x96	; 150
    1eac:	b8 f4       	brcc	.+46     	; 0x1edc <round+0x3a>
    1eae:	9e 38       	cpi	r25, 0x8E	; 142
    1eb0:	48 f4       	brcc	.+18     	; 0x1ec4 <round+0x22>
    1eb2:	67 2f       	mov	r22, r23
    1eb4:	78 2f       	mov	r23, r24
    1eb6:	88 27       	eor	r24, r24
    1eb8:	98 5f       	subi	r25, 0xF8	; 248
    1eba:	f9 cf       	rjmp	.-14     	; 0x1eae <round+0xc>
    1ebc:	86 95       	lsr	r24
    1ebe:	77 95       	ror	r23
    1ec0:	67 95       	ror	r22
    1ec2:	93 95       	inc	r25
    1ec4:	95 39       	cpi	r25, 0x95	; 149
    1ec6:	d0 f3       	brcs	.-12     	; 0x1ebc <round+0x1a>
    1ec8:	b6 2f       	mov	r27, r22
    1eca:	b1 70       	andi	r27, 0x01	; 1
    1ecc:	6b 0f       	add	r22, r27
    1ece:	71 1d       	adc	r23, r1
    1ed0:	81 1d       	adc	r24, r1
    1ed2:	20 f4       	brcc	.+8      	; 0x1edc <round+0x3a>
    1ed4:	87 95       	ror	r24
    1ed6:	77 95       	ror	r23
    1ed8:	67 95       	ror	r22
    1eda:	93 95       	inc	r25
    1edc:	4a c0       	rjmp	.+148    	; 0x1f72 <__fp_mintl>
    1ede:	64 c0       	rjmp	.+200    	; 0x1fa8 <__fp_mpack>
    1ee0:	39 cf       	rjmp	.-398    	; 0x1d54 <__fp_szero>

00001ee2 <sin>:
    1ee2:	9f 93       	push	r25
    1ee4:	cb de       	rcall	.-618    	; 0x1c7c <__fp_rempio2>
    1ee6:	0f 90       	pop	r0
    1ee8:	07 fc       	sbrc	r0, 7
    1eea:	ee 5f       	subi	r30, 0xFE	; 254
    1eec:	ff ce       	rjmp	.-514    	; 0x1cec <__fp_sinus>
    1eee:	11 f4       	brne	.+4      	; 0x1ef4 <sin+0x12>
    1ef0:	0e f4       	brtc	.+2      	; 0x1ef4 <sin+0x12>
    1ef2:	8d ce       	rjmp	.-742    	; 0x1c0e <__fp_nan>
    1ef4:	59 c0       	rjmp	.+178    	; 0x1fa8 <__fp_mpack>

00001ef6 <sqrt>:
    1ef6:	13 df       	rcall	.-474    	; 0x1d1e <__fp_splitA>
    1ef8:	d0 f3       	brcs	.-12     	; 0x1eee <sin+0xc>
    1efa:	99 23       	and	r25, r25
    1efc:	d9 f3       	breq	.-10     	; 0x1ef4 <sin+0x12>
    1efe:	ce f3       	brts	.-14     	; 0x1ef2 <sin+0x10>
    1f00:	9f 57       	subi	r25, 0x7F	; 127
    1f02:	55 0b       	sbc	r21, r21
    1f04:	87 ff       	sbrs	r24, 7
    1f06:	5e d0       	rcall	.+188    	; 0x1fc4 <__fp_norm2>
    1f08:	00 24       	eor	r0, r0
    1f0a:	a0 e6       	ldi	r26, 0x60	; 96
    1f0c:	40 ea       	ldi	r20, 0xA0	; 160
    1f0e:	90 01       	movw	r18, r0
    1f10:	80 58       	subi	r24, 0x80	; 128
    1f12:	56 95       	lsr	r21
    1f14:	97 95       	ror	r25
    1f16:	28 f4       	brcc	.+10     	; 0x1f22 <sqrt+0x2c>
    1f18:	80 5c       	subi	r24, 0xC0	; 192
    1f1a:	66 0f       	add	r22, r22
    1f1c:	77 1f       	adc	r23, r23
    1f1e:	88 1f       	adc	r24, r24
    1f20:	20 f0       	brcs	.+8      	; 0x1f2a <sqrt+0x34>
    1f22:	26 17       	cp	r18, r22
    1f24:	37 07       	cpc	r19, r23
    1f26:	48 07       	cpc	r20, r24
    1f28:	30 f4       	brcc	.+12     	; 0x1f36 <sqrt+0x40>
    1f2a:	62 1b       	sub	r22, r18
    1f2c:	73 0b       	sbc	r23, r19
    1f2e:	84 0b       	sbc	r24, r20
    1f30:	20 29       	or	r18, r0
    1f32:	31 29       	or	r19, r1
    1f34:	4a 2b       	or	r20, r26
    1f36:	a6 95       	lsr	r26
    1f38:	17 94       	ror	r1
    1f3a:	07 94       	ror	r0
    1f3c:	20 25       	eor	r18, r0
    1f3e:	31 25       	eor	r19, r1
    1f40:	4a 27       	eor	r20, r26
    1f42:	58 f7       	brcc	.-42     	; 0x1f1a <sqrt+0x24>
    1f44:	66 0f       	add	r22, r22
    1f46:	77 1f       	adc	r23, r23
    1f48:	88 1f       	adc	r24, r24
    1f4a:	20 f0       	brcs	.+8      	; 0x1f54 <sqrt+0x5e>
    1f4c:	26 17       	cp	r18, r22
    1f4e:	37 07       	cpc	r19, r23
    1f50:	48 07       	cpc	r20, r24
    1f52:	30 f4       	brcc	.+12     	; 0x1f60 <sqrt+0x6a>
    1f54:	62 0b       	sbc	r22, r18
    1f56:	73 0b       	sbc	r23, r19
    1f58:	84 0b       	sbc	r24, r20
    1f5a:	20 0d       	add	r18, r0
    1f5c:	31 1d       	adc	r19, r1
    1f5e:	41 1d       	adc	r20, r1
    1f60:	a0 95       	com	r26
    1f62:	81 f7       	brne	.-32     	; 0x1f44 <sqrt+0x4e>
    1f64:	b9 01       	movw	r22, r18
    1f66:	84 2f       	mov	r24, r20
    1f68:	91 58       	subi	r25, 0x81	; 129
    1f6a:	88 0f       	add	r24, r24
    1f6c:	96 95       	lsr	r25
    1f6e:	87 95       	ror	r24
    1f70:	08 95       	ret

00001f72 <__fp_mintl>:
    1f72:	88 23       	and	r24, r24
    1f74:	71 f4       	brne	.+28     	; 0x1f92 <__fp_mintl+0x20>
    1f76:	77 23       	and	r23, r23
    1f78:	21 f0       	breq	.+8      	; 0x1f82 <__fp_mintl+0x10>
    1f7a:	98 50       	subi	r25, 0x08	; 8
    1f7c:	87 2b       	or	r24, r23
    1f7e:	76 2f       	mov	r23, r22
    1f80:	07 c0       	rjmp	.+14     	; 0x1f90 <__fp_mintl+0x1e>
    1f82:	66 23       	and	r22, r22
    1f84:	11 f4       	brne	.+4      	; 0x1f8a <__fp_mintl+0x18>
    1f86:	99 27       	eor	r25, r25
    1f88:	0d c0       	rjmp	.+26     	; 0x1fa4 <__fp_mintl+0x32>
    1f8a:	90 51       	subi	r25, 0x10	; 16
    1f8c:	86 2b       	or	r24, r22
    1f8e:	70 e0       	ldi	r23, 0x00	; 0
    1f90:	60 e0       	ldi	r22, 0x00	; 0
    1f92:	2a f0       	brmi	.+10     	; 0x1f9e <__fp_mintl+0x2c>
    1f94:	9a 95       	dec	r25
    1f96:	66 0f       	add	r22, r22
    1f98:	77 1f       	adc	r23, r23
    1f9a:	88 1f       	adc	r24, r24
    1f9c:	da f7       	brpl	.-10     	; 0x1f94 <__fp_mintl+0x22>
    1f9e:	88 0f       	add	r24, r24
    1fa0:	96 95       	lsr	r25
    1fa2:	87 95       	ror	r24
    1fa4:	97 f9       	bld	r25, 7
    1fa6:	08 95       	ret

00001fa8 <__fp_mpack>:
    1fa8:	9f 3f       	cpi	r25, 0xFF	; 255
    1faa:	31 f0       	breq	.+12     	; 0x1fb8 <__fp_mpack_finite+0xc>

00001fac <__fp_mpack_finite>:
    1fac:	91 50       	subi	r25, 0x01	; 1
    1fae:	20 f4       	brcc	.+8      	; 0x1fb8 <__fp_mpack_finite+0xc>
    1fb0:	87 95       	ror	r24
    1fb2:	77 95       	ror	r23
    1fb4:	67 95       	ror	r22
    1fb6:	b7 95       	ror	r27
    1fb8:	88 0f       	add	r24, r24
    1fba:	91 1d       	adc	r25, r1
    1fbc:	96 95       	lsr	r25
    1fbe:	87 95       	ror	r24
    1fc0:	97 f9       	bld	r25, 7
    1fc2:	08 95       	ret

00001fc4 <__fp_norm2>:
    1fc4:	91 50       	subi	r25, 0x01	; 1
    1fc6:	50 40       	sbci	r21, 0x00	; 0
    1fc8:	66 0f       	add	r22, r22
    1fca:	77 1f       	adc	r23, r23
    1fcc:	88 1f       	adc	r24, r24
    1fce:	d2 f7       	brpl	.-12     	; 0x1fc4 <__fp_norm2>
    1fd0:	08 95       	ret

00001fd2 <__fp_powsodd>:
    1fd2:	9f 93       	push	r25
    1fd4:	8f 93       	push	r24
    1fd6:	7f 93       	push	r23
    1fd8:	6f 93       	push	r22
    1fda:	ff 93       	push	r31
    1fdc:	ef 93       	push	r30
    1fde:	9b 01       	movw	r18, r22
    1fe0:	ac 01       	movw	r20, r24
    1fe2:	fc de       	rcall	.-520    	; 0x1ddc <__mulsf3>
    1fe4:	ef 91       	pop	r30
    1fe6:	ff 91       	pop	r31
    1fe8:	15 de       	rcall	.-982    	; 0x1c14 <__fp_powser>
    1fea:	2f 91       	pop	r18
    1fec:	3f 91       	pop	r19
    1fee:	4f 91       	pop	r20
    1ff0:	5f 91       	pop	r21
    1ff2:	f4 ce       	rjmp	.-536    	; 0x1ddc <__mulsf3>

00001ff4 <atoi>:
    1ff4:	fc 01       	movw	r30, r24
    1ff6:	88 27       	eor	r24, r24
    1ff8:	99 27       	eor	r25, r25
    1ffa:	e8 94       	clt
    1ffc:	21 91       	ld	r18, Z+
    1ffe:	20 32       	cpi	r18, 0x20	; 32
    2000:	e9 f3       	breq	.-6      	; 0x1ffc <atoi+0x8>
    2002:	29 30       	cpi	r18, 0x09	; 9
    2004:	10 f0       	brcs	.+4      	; 0x200a <atoi+0x16>
    2006:	2e 30       	cpi	r18, 0x0E	; 14
    2008:	c8 f3       	brcs	.-14     	; 0x1ffc <atoi+0x8>
    200a:	2b 32       	cpi	r18, 0x2B	; 43
    200c:	39 f0       	breq	.+14     	; 0x201c <atoi+0x28>
    200e:	2d 32       	cpi	r18, 0x2D	; 45
    2010:	31 f4       	brne	.+12     	; 0x201e <atoi+0x2a>
    2012:	68 94       	set
    2014:	03 c0       	rjmp	.+6      	; 0x201c <atoi+0x28>
    2016:	0b d0       	rcall	.+22     	; 0x202e <__mulhi_const_10>
    2018:	82 0f       	add	r24, r18
    201a:	91 1d       	adc	r25, r1
    201c:	21 91       	ld	r18, Z+
    201e:	20 53       	subi	r18, 0x30	; 48
    2020:	2a 30       	cpi	r18, 0x0A	; 10
    2022:	c8 f3       	brcs	.-14     	; 0x2016 <atoi+0x22>
    2024:	1e f4       	brtc	.+6      	; 0x202c <atoi+0x38>
    2026:	90 95       	com	r25
    2028:	81 95       	neg	r24
    202a:	9f 4f       	sbci	r25, 0xFF	; 255
    202c:	08 95       	ret

0000202e <__mulhi_const_10>:
    202e:	7a e0       	ldi	r23, 0x0A	; 10
    2030:	97 9f       	mul	r25, r23
    2032:	90 2d       	mov	r25, r0
    2034:	87 9f       	mul	r24, r23
    2036:	80 2d       	mov	r24, r0
    2038:	91 0d       	add	r25, r1
    203a:	11 24       	eor	r1, r1
    203c:	08 95       	ret

0000203e <_exit>:
    203e:	f8 94       	cli

00002040 <__stop_program>:
    2040:	ff cf       	rjmp	.-2      	; 0x2040 <__stop_program>
