
Delta_Rho_controller.elf:     file format elf32-avr

Sections:
Idx Name          Size      VMA       LMA       File off  Algn
  0 .data         0000006a  00800100  00002b66  00002bfa  2**0
                  CONTENTS, ALLOC, LOAD, DATA
  1 .text         00002b66  00000000  00000000  00000094  2**1
                  CONTENTS, ALLOC, LOAD, READONLY, CODE
  2 .bss          000000bd  0080016a  0080016a  00002c64  2**0
                  ALLOC
  3 .comment      00000030  00000000  00000000  00002c64  2**0
                  CONTENTS, READONLY
  4 .note.gnu.avr.deviceinfo 00000040  00000000  00000000  00002c94  2**2
                  CONTENTS, READONLY
  5 .debug_aranges 000001a8  00000000  00000000  00002cd4  2**0
                  CONTENTS, READONLY, DEBUGGING
  6 .debug_info   0000274b  00000000  00000000  00002e7c  2**0
                  CONTENTS, READONLY, DEBUGGING
  7 .debug_abbrev 00000dba  00000000  00000000  000055c7  2**0
                  CONTENTS, READONLY, DEBUGGING
  8 .debug_line   00001670  00000000  00000000  00006381  2**0
                  CONTENTS, READONLY, DEBUGGING
  9 .debug_frame  00000850  00000000  00000000  000079f4  2**2
                  CONTENTS, READONLY, DEBUGGING
 10 .debug_str    00000b4d  00000000  00000000  00008244  2**0
                  CONTENTS, READONLY, DEBUGGING
 11 .debug_loc    000028b3  00000000  00000000  00008d91  2**0
                  CONTENTS, READONLY, DEBUGGING
 12 .debug_ranges 000001d0  00000000  00000000  0000b644  2**0
                  CONTENTS, READONLY, DEBUGGING

Disassembly of section .text:

00000000 <__vectors>:
       0:	7f c0       	rjmp	.+254    	; 0x100 <__ctors_end>
       2:	00 00       	nop
       4:	9c c0       	rjmp	.+312    	; 0x13e <__bad_interrupt>
       6:	00 00       	nop
       8:	9a c0       	rjmp	.+308    	; 0x13e <__bad_interrupt>
       a:	00 00       	nop
       c:	98 c0       	rjmp	.+304    	; 0x13e <__bad_interrupt>
       e:	00 00       	nop
      10:	96 c0       	rjmp	.+300    	; 0x13e <__bad_interrupt>
      12:	00 00       	nop
      14:	94 c0       	rjmp	.+296    	; 0x13e <__bad_interrupt>
      16:	00 00       	nop
      18:	92 c0       	rjmp	.+292    	; 0x13e <__bad_interrupt>
      1a:	00 00       	nop
      1c:	90 c0       	rjmp	.+288    	; 0x13e <__bad_interrupt>
      1e:	00 00       	nop
      20:	8e c0       	rjmp	.+284    	; 0x13e <__bad_interrupt>
      22:	00 00       	nop
      24:	8c c0       	rjmp	.+280    	; 0x13e <__bad_interrupt>
      26:	00 00       	nop
      28:	8a c0       	rjmp	.+276    	; 0x13e <__bad_interrupt>
      2a:	00 00       	nop
      2c:	88 c0       	rjmp	.+272    	; 0x13e <__bad_interrupt>
      2e:	00 00       	nop
      30:	86 c0       	rjmp	.+268    	; 0x13e <__bad_interrupt>
      32:	00 00       	nop
      34:	84 c0       	rjmp	.+264    	; 0x13e <__bad_interrupt>
      36:	00 00       	nop
      38:	82 c0       	rjmp	.+260    	; 0x13e <__bad_interrupt>
      3a:	00 00       	nop
      3c:	80 c0       	rjmp	.+256    	; 0x13e <__bad_interrupt>
      3e:	00 00       	nop
      40:	7e c0       	rjmp	.+252    	; 0x13e <__bad_interrupt>
      42:	00 00       	nop
      44:	7c c0       	rjmp	.+248    	; 0x13e <__bad_interrupt>
      46:	00 00       	nop
      48:	7a c0       	rjmp	.+244    	; 0x13e <__bad_interrupt>
      4a:	00 00       	nop
      4c:	78 c0       	rjmp	.+240    	; 0x13e <__bad_interrupt>
      4e:	00 00       	nop
      50:	76 c0       	rjmp	.+236    	; 0x13e <__bad_interrupt>
      52:	00 00       	nop
      54:	74 c0       	rjmp	.+232    	; 0x13e <__bad_interrupt>
      56:	00 00       	nop
      58:	72 c0       	rjmp	.+228    	; 0x13e <__bad_interrupt>
      5a:	00 00       	nop
      5c:	70 c0       	rjmp	.+224    	; 0x13e <__bad_interrupt>
      5e:	00 00       	nop
      60:	6e c0       	rjmp	.+220    	; 0x13e <__bad_interrupt>
      62:	00 00       	nop
      64:	6c c0       	rjmp	.+216    	; 0x13e <__bad_interrupt>
      66:	00 00       	nop
      68:	0c 94 27 10 	jmp	0x204e	; 0x204e <__vector_26>
      6c:	68 c0       	rjmp	.+208    	; 0x13e <__bad_interrupt>
      6e:	00 00       	nop
      70:	0c 94 5a 08 	jmp	0x10b4	; 0x10b4 <__vector_28>
      74:	64 c0       	rjmp	.+200    	; 0x13e <__bad_interrupt>
      76:	00 00       	nop
      78:	62 c0       	rjmp	.+196    	; 0x13e <__bad_interrupt>
      7a:	00 00       	nop
      7c:	60 c0       	rjmp	.+192    	; 0x13e <__bad_interrupt>
      7e:	00 00       	nop
      80:	64 c1       	rjmp	.+712    	; 0x34a <__vector_32>
      82:	00 00       	nop
      84:	5c c0       	rjmp	.+184    	; 0x13e <__bad_interrupt>
      86:	00 00       	nop
      88:	5a c0       	rjmp	.+180    	; 0x13e <__bad_interrupt>
      8a:	00 00       	nop
      8c:	08 4a       	sbci	r16, 0xA8	; 168
      8e:	d7 3b       	cpi	r29, 0xB7	; 183
      90:	3b ce       	rjmp	.-906    	; 0xfffffd08 <__eeprom_end+0xff7efd08>
      92:	01 6e       	ori	r16, 0xE1	; 225
      94:	84 bc       	out	0x24, r8	; 36
      96:	bf fd       	.word	0xfdbf	; ????
      98:	c1 2f       	mov	r28, r17
      9a:	3d 6c       	ori	r19, 0xCD	; 205
      9c:	74 31       	cpi	r23, 0x14	; 20
      9e:	9a bd       	out	0x2a, r25	; 42
      a0:	56 83       	std	Z+6, r21	; 0x06
      a2:	3d da       	rcall	.-2950   	; 0xfffff51e <__eeprom_end+0xff7ef51e>
      a4:	3d 00       	.word	0x003d	; ????
      a6:	c7 7f       	andi	r28, 0xF7	; 247
      a8:	11 be       	out	0x31, r1	; 49
      aa:	d9 e4       	ldi	r29, 0x49	; 73
      ac:	bb 4c       	sbci	r27, 0xCB	; 203
      ae:	3e 91       	ld	r19, -X
      b0:	6b aa       	std	Y+51, r6	; 0x33
      b2:	aa be       	out	0x3a, r10	; 58
      b4:	00 00       	nop
      b6:	00 80       	ld	r0, Z
      b8:	3f 07       	cpc	r19, r31
      ba:	2c 7a       	andi	r18, 0xAC	; 172
      bc:	a5 ba       	out	0x15, r10	; 21
      be:	6c c5       	rjmp	.+2776   	; 0xb98 <getHome+0x15a>
      c0:	90 da       	rcall	.-2784   	; 0xfffff5e2 <__eeprom_end+0xff7ef5e2>
      c2:	3b 93       	.word	0x933b	; ????
      c4:	65 fc       	sbrc	r6, 5
      c6:	8b bc       	out	0x2b, r8	; 43
      c8:	53 f8       	bld	r5, 3
      ca:	10 fd       	sbrc	r17, 0
      cc:	3c 56       	subi	r19, 0x6C	; 108
      ce:	92 83       	std	Z+2, r25	; 0x02
      d0:	4d bd       	out	0x2d, r20	; 45
      d2:	87 9d       	mul	r24, r7
      d4:	3a b6       	in	r3, 0x3a	; 58
      d6:	3d cb       	rjmp	.-2438   	; 0xfffff752 <__eeprom_end+0xff7ef752>
      d8:	c9 bf       	out	0x39, r28	; 57
      da:	5b be       	out	0x3b, r5	; 59
      dc:	73 da       	rcall	.-2842   	; 0xfffff5c4 <__eeprom_end+0xff7ef5c4>
      de:	0f c9       	rjmp	.-3554   	; 0xfffff2fe <__eeprom_end+0xff7ef2fe>
      e0:	3f 05       	cpc	r19, r15
      e2:	a8 4c       	sbci	r26, 0xC8	; 200
      e4:	cd b2       	in	r12, 0x1d	; 29
      e6:	d4 4e       	sbci	r29, 0xE4	; 228
      e8:	b9 38       	cpi	r27, 0x89	; 137
      ea:	36 a9       	ldd	r19, Z+54	; 0x36
      ec:	02 0c       	add	r0, r2
      ee:	50 b9       	out	0x00, r21	; 0
      f0:	91 86       	std	Z+9, r9	; 0x09
      f2:	88 08       	sbc	r8, r8
      f4:	3c a6       	std	Y+44, r3	; 0x2c
      f6:	aa aa       	std	Y+50, r10	; 0x32
      f8:	2a be       	out	0x3a, r2	; 58
      fa:	00 00       	nop
      fc:	00 80       	ld	r0, Z
      fe:	3f 00       	.word	0x003f	; ????

00000100 <__ctors_end>:
     100:	11 24       	eor	r1, r1
     102:	1f be       	out	0x3f, r1	; 63
     104:	cf ef       	ldi	r28, 0xFF	; 255
     106:	d0 e4       	ldi	r29, 0x40	; 64
     108:	de bf       	out	0x3e, r29	; 62
     10a:	cd bf       	out	0x3d, r28	; 61

0000010c <__do_copy_data>:
     10c:	11 e0       	ldi	r17, 0x01	; 1
     10e:	a0 e0       	ldi	r26, 0x00	; 0
     110:	b1 e0       	ldi	r27, 0x01	; 1
     112:	e6 e6       	ldi	r30, 0x66	; 102
     114:	fb e2       	ldi	r31, 0x2B	; 43
     116:	00 e0       	ldi	r16, 0x00	; 0
     118:	0b bf       	out	0x3b, r16	; 59
     11a:	02 c0       	rjmp	.+4      	; 0x120 <__do_copy_data+0x14>
     11c:	07 90       	elpm	r0, Z+
     11e:	0d 92       	st	X+, r0
     120:	aa 36       	cpi	r26, 0x6A	; 106
     122:	b1 07       	cpc	r27, r17
     124:	d9 f7       	brne	.-10     	; 0x11c <__do_copy_data+0x10>

00000126 <__do_clear_bss>:
     126:	22 e0       	ldi	r18, 0x02	; 2
     128:	aa e6       	ldi	r26, 0x6A	; 106
     12a:	b1 e0       	ldi	r27, 0x01	; 1
     12c:	01 c0       	rjmp	.+2      	; 0x130 <.do_clear_bss_start>

0000012e <.do_clear_bss_loop>:
     12e:	1d 92       	st	X+, r1

00000130 <.do_clear_bss_start>:
     130:	a7 32       	cpi	r26, 0x27	; 39
     132:	b2 07       	cpc	r27, r18
     134:	e1 f7       	brne	.-8      	; 0x12e <.do_clear_bss_loop>
     136:	0e 94 91 0d 	call	0x1b22	; 0x1b22 <main>
     13a:	0c 94 b1 15 	jmp	0x2b62	; 0x2b62 <_exit>

0000013e <__bad_interrupt>:
     13e:	60 cf       	rjmp	.-320    	; 0x0 <__vectors>

00000140 <time>:
     140:	fc 01       	movw	r30, r24
     142:	0f b6       	in	r0, 0x3f	; 63
     144:	f8 94       	cli
     146:	60 91 23 02 	lds	r22, 0x0223	; 0x800223 <__system_time>
     14a:	70 91 24 02 	lds	r23, 0x0224	; 0x800224 <__system_time+0x1>
     14e:	80 91 25 02 	lds	r24, 0x0225	; 0x800225 <__system_time+0x2>
     152:	90 91 26 02 	lds	r25, 0x0226	; 0x800226 <__system_time+0x3>
     156:	0f be       	out	0x3f, r0	; 63
     158:	30 97       	sbiw	r30, 0x00	; 0
     15a:	21 f0       	breq	.+8      	; 0x164 <time+0x24>
     15c:	60 83       	st	Z, r22
     15e:	71 83       	std	Z+1, r23	; 0x01
     160:	82 83       	std	Z+2, r24	; 0x02
     162:	93 83       	std	Z+3, r25	; 0x03
     164:	08 95       	ret

00000166 <ADC_Initialize>:
		
	float gainX; // gain in ROBOT's X direction
	float gainY; // gain in ROBOT's Y direction
	
	gainY = 20;
	gainX = gainY;
     166:	6f 92       	push	r6
     168:	7f 92       	push	r7
     16a:	8f 92       	push	r8
     16c:	9f 92       	push	r9
     16e:	af 92       	push	r10
     170:	cf 92       	push	r12
     172:	ef 92       	push	r14
     174:	ff 92       	push	r15
     176:	0f 93       	push	r16
     178:	1f 93       	push	r17
     17a:	cf 93       	push	r28
     17c:	df 93       	push	r29
     17e:	ac e7       	ldi	r26, 0x7C	; 124
     180:	b0 e0       	ldi	r27, 0x00	; 0
     182:	1c 92       	st	X, r1
     184:	ea e7       	ldi	r30, 0x7A	; 122
     186:	f0 e0       	ldi	r31, 0x00	; 0
     188:	10 82       	st	Z, r1
     18a:	9b e7       	ldi	r25, 0x7B	; 123
     18c:	69 2e       	mov	r6, r25
     18e:	71 2c       	mov	r7, r1
     190:	e3 01       	movw	r28, r6
     192:	18 82       	st	Y, r1
     194:	3e e7       	ldi	r19, 0x7E	; 126
     196:	83 2e       	mov	r8, r19
     198:	91 2c       	mov	r9, r1
     19a:	e4 01       	movw	r28, r8
     19c:	18 82       	st	Y, r1
     19e:	30 81       	ld	r19, Z
     1a0:	d0 e8       	ldi	r29, 0x80	; 128
     1a2:	8d 9f       	mul	r24, r29
     1a4:	c0 01       	movw	r24, r0
     1a6:	11 24       	eor	r1, r1
     1a8:	83 2b       	or	r24, r19
     1aa:	80 83       	st	Z, r24
     1ac:	e4 01       	movw	r28, r8
     1ae:	68 83       	st	Y, r22
     1b0:	8c 91       	ld	r24, X
     1b2:	d0 e4       	ldi	r29, 0x40	; 64
     1b4:	4d 9f       	mul	r20, r29
     1b6:	a0 01       	movw	r20, r0
     1b8:	11 24       	eor	r1, r1
     1ba:	48 2b       	or	r20, r24
     1bc:	4c 93       	st	X, r20
     1be:	8c 91       	ld	r24, X
     1c0:	50 e2       	ldi	r21, 0x20	; 32
     1c2:	05 9f       	mul	r16, r21
     1c4:	80 01       	movw	r16, r0
     1c6:	11 24       	eor	r1, r1
     1c8:	08 2b       	or	r16, r24
     1ca:	0c 93       	st	X, r16
     1cc:	80 81       	ld	r24, Z
     1ce:	28 2b       	or	r18, r24
     1d0:	20 83       	st	Z, r18
     1d2:	80 81       	ld	r24, Z
     1d4:	90 e2       	ldi	r25, 0x20	; 32
     1d6:	e9 9e       	mul	r14, r25
     1d8:	70 01       	movw	r14, r0
     1da:	11 24       	eor	r1, r1
     1dc:	e8 2a       	or	r14, r24
     1de:	e0 82       	st	Z, r14
     1e0:	d3 01       	movw	r26, r6
     1e2:	8c 91       	ld	r24, X
     1e4:	c8 2a       	or	r12, r24
     1e6:	cc 92       	st	X, r12
     1e8:	80 81       	ld	r24, Z
     1ea:	aa 0c       	add	r10, r10
     1ec:	aa 0c       	add	r10, r10
     1ee:	aa 0c       	add	r10, r10
     1f0:	a8 2a       	or	r10, r24
     1f2:	a0 82       	st	Z, r10
     1f4:	df 91       	pop	r29
     1f6:	cf 91       	pop	r28
     1f8:	1f 91       	pop	r17
     1fa:	0f 91       	pop	r16
     1fc:	ff 90       	pop	r15
     1fe:	ef 90       	pop	r14
     200:	cf 90       	pop	r12
     202:	af 90       	pop	r10
     204:	9f 90       	pop	r9
     206:	8f 90       	pop	r8
     208:	7f 90       	pop	r7
     20a:	6f 90       	pop	r6
     20c:	08 95       	ret

0000020e <ADC_read>:
     20e:	90 91 7c 00 	lds	r25, 0x007C	; 0x80007c <__TEXT_REGION_LENGTH__+0x7e007c>
     212:	90 7e       	andi	r25, 0xE0	; 224
     214:	90 93 7c 00 	sts	0x007C, r25	; 0x80007c <__TEXT_REGION_LENGTH__+0x7e007c>
     218:	90 91 7c 00 	lds	r25, 0x007C	; 0x80007c <__TEXT_REGION_LENGTH__+0x7e007c>
     21c:	89 2b       	or	r24, r25
     21e:	80 93 7c 00 	sts	0x007C, r24	; 0x80007c <__TEXT_REGION_LENGTH__+0x7e007c>
     222:	80 91 7a 00 	lds	r24, 0x007A	; 0x80007a <__TEXT_REGION_LENGTH__+0x7e007a>
     226:	80 64       	ori	r24, 0x40	; 64
     228:	80 93 7a 00 	sts	0x007A, r24	; 0x80007a <__TEXT_REGION_LENGTH__+0x7e007a>
     22c:	80 91 7a 00 	lds	r24, 0x007A	; 0x80007a <__TEXT_REGION_LENGTH__+0x7e007a>
     230:	84 ff       	sbrs	r24, 4
     232:	fc cf       	rjmp	.-8      	; 0x22c <ADC_read+0x1e>
     234:	80 91 7a 00 	lds	r24, 0x007A	; 0x80007a <__TEXT_REGION_LENGTH__+0x7e007a>
     238:	80 61       	ori	r24, 0x10	; 16
     23a:	80 93 7a 00 	sts	0x007A, r24	; 0x80007a <__TEXT_REGION_LENGTH__+0x7e007a>
     23e:	80 91 78 00 	lds	r24, 0x0078	; 0x800078 <__TEXT_REGION_LENGTH__+0x7e0078>
     242:	20 91 79 00 	lds	r18, 0x0079	; 0x800079 <__TEXT_REGION_LENGTH__+0x7e0079>
     246:	90 e0       	ldi	r25, 0x00	; 0
     248:	92 2b       	or	r25, r18
     24a:	08 95       	ret

0000024c <mC_init>:
     24c:	af 92       	push	r10
     24e:	cf 92       	push	r12
     250:	ef 92       	push	r14
     252:	0f 93       	push	r16
     254:	e1 e6       	ldi	r30, 0x61	; 97
     256:	f0 e0       	ldi	r31, 0x00	; 0
     258:	80 e8       	ldi	r24, 0x80	; 128
     25a:	80 83       	st	Z, r24
     25c:	10 82       	st	Z, r1
     25e:	11 b8       	out	0x01, r1	; 1
     260:	12 b8       	out	0x02, r1	; 2
     262:	8f ef       	ldi	r24, 0xFF	; 255
     264:	84 b9       	out	0x04, r24	; 4
     266:	15 b8       	out	0x05, r1	; 5
     268:	80 ef       	ldi	r24, 0xF0	; 240
     26a:	87 b9       	out	0x07, r24	; 7
     26c:	18 b8       	out	0x08, r1	; 8
     26e:	8b ef       	ldi	r24, 0xFB	; 251
     270:	8a b9       	out	0x0a, r24	; 10
     272:	1b b8       	out	0x0b, r1	; 11
     274:	91 ea       	ldi	r25, 0xA1	; 161
     276:	94 bd       	out	0x24, r25	; 36
     278:	82 e0       	ldi	r24, 0x02	; 2
     27a:	85 bd       	out	0x25, r24	; 37
     27c:	16 bc       	out	0x26, r1	; 38
     27e:	17 bc       	out	0x27, r1	; 39
     280:	18 bc       	out	0x28, r1	; 40
     282:	90 93 80 00 	sts	0x0080, r25	; 0x800080 <__TEXT_REGION_LENGTH__+0x7e0080>
     286:	80 93 81 00 	sts	0x0081, r24	; 0x800081 <__TEXT_REGION_LENGTH__+0x7e0081>
     28a:	10 92 85 00 	sts	0x0085, r1	; 0x800085 <__TEXT_REGION_LENGTH__+0x7e0085>
     28e:	10 92 84 00 	sts	0x0084, r1	; 0x800084 <__TEXT_REGION_LENGTH__+0x7e0084>
     292:	10 92 87 00 	sts	0x0087, r1	; 0x800087 <__TEXT_REGION_LENGTH__+0x7e0087>
     296:	10 92 86 00 	sts	0x0086, r1	; 0x800086 <__TEXT_REGION_LENGTH__+0x7e0086>
     29a:	10 92 89 00 	sts	0x0089, r1	; 0x800089 <__TEXT_REGION_LENGTH__+0x7e0089>
     29e:	10 92 88 00 	sts	0x0088, r1	; 0x800088 <__TEXT_REGION_LENGTH__+0x7e0088>
     2a2:	10 92 8b 00 	sts	0x008B, r1	; 0x80008b <__TEXT_REGION_LENGTH__+0x7e008b>
     2a6:	10 92 8a 00 	sts	0x008A, r1	; 0x80008a <__TEXT_REGION_LENGTH__+0x7e008a>
     2aa:	10 92 b6 00 	sts	0x00B6, r1	; 0x8000b6 <__TEXT_REGION_LENGTH__+0x7e00b6>
     2ae:	90 93 b0 00 	sts	0x00B0, r25	; 0x8000b0 <__TEXT_REGION_LENGTH__+0x7e00b0>
     2b2:	80 93 b1 00 	sts	0x00B1, r24	; 0x8000b1 <__TEXT_REGION_LENGTH__+0x7e00b1>
     2b6:	10 92 b2 00 	sts	0x00B2, r1	; 0x8000b2 <__TEXT_REGION_LENGTH__+0x7e00b2>
     2ba:	10 92 b3 00 	sts	0x00B3, r1	; 0x8000b3 <__TEXT_REGION_LENGTH__+0x7e00b3>
     2be:	10 92 b4 00 	sts	0x00B4, r1	; 0x8000b4 <__TEXT_REGION_LENGTH__+0x7e00b4>
     2c2:	10 92 90 00 	sts	0x0090, r1	; 0x800090 <__TEXT_REGION_LENGTH__+0x7e0090>
     2c6:	9d e0       	ldi	r25, 0x0D	; 13
     2c8:	90 93 91 00 	sts	0x0091, r25	; 0x800091 <__TEXT_REGION_LENGTH__+0x7e0091>
     2cc:	10 92 95 00 	sts	0x0095, r1	; 0x800095 <__TEXT_REGION_LENGTH__+0x7e0095>
     2d0:	10 92 94 00 	sts	0x0094, r1	; 0x800094 <__TEXT_REGION_LENGTH__+0x7e0094>
     2d4:	10 92 97 00 	sts	0x0097, r1	; 0x800097 <__TEXT_REGION_LENGTH__+0x7e0097>
     2d8:	10 92 96 00 	sts	0x0096, r1	; 0x800096 <__TEXT_REGION_LENGTH__+0x7e0096>
     2dc:	10 92 99 00 	sts	0x0099, r1	; 0x800099 <__TEXT_REGION_LENGTH__+0x7e0099>
     2e0:	93 e6       	ldi	r25, 0x63	; 99
     2e2:	90 93 98 00 	sts	0x0098, r25	; 0x800098 <__TEXT_REGION_LENGTH__+0x7e0098>
     2e6:	10 92 9b 00 	sts	0x009B, r1	; 0x80009b <__TEXT_REGION_LENGTH__+0x7e009b>
     2ea:	10 92 9a 00 	sts	0x009A, r1	; 0x80009a <__TEXT_REGION_LENGTH__+0x7e009a>
     2ee:	10 92 6e 00 	sts	0x006E, r1	; 0x80006e <__TEXT_REGION_LENGTH__+0x7e006e>
     2f2:	10 92 6f 00 	sts	0x006F, r1	; 0x80006f <__TEXT_REGION_LENGTH__+0x7e006f>
     2f6:	10 92 70 00 	sts	0x0070, r1	; 0x800070 <__TEXT_REGION_LENGTH__+0x7e0070>
     2fa:	80 93 71 00 	sts	0x0071, r24	; 0x800071 <__TEXT_REGION_LENGTH__+0x7e0071>
     2fe:	a1 2c       	mov	r10, r1
     300:	c1 2c       	mov	r12, r1
     302:	e1 2c       	mov	r14, r1
     304:	00 e0       	ldi	r16, 0x00	; 0
     306:	27 e0       	ldi	r18, 0x07	; 7
     308:	41 e0       	ldi	r20, 0x01	; 1
     30a:	69 e0       	ldi	r22, 0x09	; 9
     30c:	81 e0       	ldi	r24, 0x01	; 1
     30e:	2b df       	rcall	.-426    	; 0x166 <ADC_Initialize>
     310:	60 e0       	ldi	r22, 0x00	; 0
     312:	70 e0       	ldi	r23, 0x00	; 0
     314:	88 ea       	ldi	r24, 0xA8	; 168
     316:	91 e4       	ldi	r25, 0x41	; 65
     318:	0e 94 6a 13 	call	0x26d4	; 0x26d4 <lrint>
     31c:	61 50       	subi	r22, 0x01	; 1
     31e:	71 09       	sbc	r23, r1
     320:	70 93 cd 00 	sts	0x00CD, r23	; 0x8000cd <__TEXT_REGION_LENGTH__+0x7e00cd>
     324:	60 93 cc 00 	sts	0x00CC, r22	; 0x8000cc <__TEXT_REGION_LENGTH__+0x7e00cc>
     328:	e9 ec       	ldi	r30, 0xC9	; 201
     32a:	f0 e0       	ldi	r31, 0x00	; 0
     32c:	88 e1       	ldi	r24, 0x18	; 24
     32e:	80 83       	st	Z, r24
     330:	aa ec       	ldi	r26, 0xCA	; 202
     332:	b0 e0       	ldi	r27, 0x00	; 0
     334:	8c 91       	ld	r24, X
     336:	86 60       	ori	r24, 0x06	; 6
     338:	8c 93       	st	X, r24
     33a:	80 81       	ld	r24, Z
     33c:	80 68       	ori	r24, 0x80	; 128
     33e:	80 83       	st	Z, r24
     340:	0f 91       	pop	r16
     342:	ef 90       	pop	r14
     344:	cf 90       	pop	r12
     346:	af 90       	pop	r10
     348:	08 95       	ret

0000034a <__vector_32>:
     34a:	1f 92       	push	r1
     34c:	0f 92       	push	r0
     34e:	0f b6       	in	r0, 0x3f	; 63
     350:	0f 92       	push	r0
     352:	11 24       	eor	r1, r1
     354:	8f 93       	push	r24
     356:	9f 93       	push	r25
     358:	af 93       	push	r26
     35a:	bf 93       	push	r27
     35c:	80 91 b6 01 	lds	r24, 0x01B6	; 0x8001b6 <n_x>
     360:	8f 5f       	subi	r24, 0xFF	; 255
     362:	80 93 b6 01 	sts	0x01B6, r24	; 0x8001b6 <n_x>
     366:	80 91 d4 01 	lds	r24, 0x01D4	; 0x8001d4 <n_o>
     36a:	8f 5f       	subi	r24, 0xFF	; 255
     36c:	80 93 d4 01 	sts	0x01D4, r24	; 0x8001d4 <n_o>
     370:	80 91 a5 01 	lds	r24, 0x01A5	; 0x8001a5 <overflowCount>
     374:	90 91 a6 01 	lds	r25, 0x01A6	; 0x8001a6 <overflowCount+0x1>
     378:	a0 91 a7 01 	lds	r26, 0x01A7	; 0x8001a7 <overflowCount+0x2>
     37c:	b0 91 a8 01 	lds	r27, 0x01A8	; 0x8001a8 <overflowCount+0x3>
     380:	01 96       	adiw	r24, 0x01	; 1
     382:	a1 1d       	adc	r26, r1
     384:	b1 1d       	adc	r27, r1
     386:	80 93 a5 01 	sts	0x01A5, r24	; 0x8001a5 <overflowCount>
     38a:	90 93 a6 01 	sts	0x01A6, r25	; 0x8001a6 <overflowCount+0x1>
     38e:	a0 93 a7 01 	sts	0x01A7, r26	; 0x8001a7 <overflowCount+0x2>
     392:	b0 93 a8 01 	sts	0x01A8, r27	; 0x8001a8 <overflowCount+0x3>
     396:	bf 91       	pop	r27
     398:	af 91       	pop	r26
     39a:	9f 91       	pop	r25
     39c:	8f 91       	pop	r24
     39e:	0f 90       	pop	r0
     3a0:	0f be       	out	0x3f, r0	; 63
     3a2:	0f 90       	pop	r0
     3a4:	1f 90       	pop	r1
     3a6:	18 95       	reti

000003a8 <applyPulse>:
     3a8:	cf 93       	push	r28
     3aa:	df 93       	push	r29
     3ac:	e9 ef       	ldi	r30, 0xF9	; 249
     3ae:	f1 e0       	ldi	r31, 0x01	; 1
     3b0:	a5 e0       	ldi	r26, 0x05	; 5
     3b2:	b2 e0       	ldi	r27, 0x02	; 2
     3b4:	c7 e1       	ldi	r28, 0x17	; 23
     3b6:	d2 e0       	ldi	r29, 0x02	; 2
     3b8:	4f ef       	ldi	r20, 0xFF	; 255
     3ba:	50 e0       	ldi	r21, 0x00	; 0
     3bc:	13 c0       	rjmp	.+38     	; 0x3e4 <applyPulse+0x3c>
     3be:	80 35       	cpi	r24, 0x50	; 80
     3c0:	91 05       	cpc	r25, r1
     3c2:	0c f0       	brlt	.+2      	; 0x3c6 <applyPulse+0x1e>
     3c4:	4f c0       	rjmp	.+158    	; 0x464 <__LOCK_REGION_LENGTH__+0x64>
     3c6:	28 81       	ld	r18, Y
     3c8:	39 81       	ldd	r19, Y+1	; 0x01
     3ca:	82 17       	cp	r24, r18
     3cc:	93 07       	cpc	r25, r19
     3ce:	09 f4       	brne	.+2      	; 0x3d2 <applyPulse+0x2a>
     3d0:	49 c0       	rjmp	.+146    	; 0x464 <__LOCK_REGION_LENGTH__+0x64>
     3d2:	11 96       	adiw	r26, 0x01	; 1
     3d4:	5c 93       	st	X, r21
     3d6:	4e 93       	st	-X, r20
     3d8:	12 96       	adiw	r26, 0x02	; 2
     3da:	22 96       	adiw	r28, 0x02	; 2
     3dc:	82 e0       	ldi	r24, 0x02	; 2
     3de:	e5 30       	cpi	r30, 0x05	; 5
     3e0:	f8 07       	cpc	r31, r24
     3e2:	69 f0       	breq	.+26     	; 0x3fe <applyPulse+0x56>
     3e4:	81 91       	ld	r24, Z+
     3e6:	91 91       	ld	r25, Z+
     3e8:	00 97       	sbiw	r24, 0x00	; 0
     3ea:	49 f7       	brne	.-46     	; 0x3be <applyPulse+0x16>
     3ec:	11 96       	adiw	r26, 0x01	; 1
     3ee:	1c 92       	st	X, r1
     3f0:	1e 92       	st	-X, r1
     3f2:	12 96       	adiw	r26, 0x02	; 2
     3f4:	22 96       	adiw	r28, 0x02	; 2
     3f6:	82 e0       	ldi	r24, 0x02	; 2
     3f8:	e5 30       	cpi	r30, 0x05	; 5
     3fa:	f8 07       	cpc	r31, r24
     3fc:	99 f7       	brne	.-26     	; 0x3e4 <applyPulse+0x3c>
     3fe:	80 91 f9 01 	lds	r24, 0x01F9	; 0x8001f9 <thisVoltage>
     402:	90 91 fa 01 	lds	r25, 0x01FA	; 0x8001fa <thisVoltage+0x1>
     406:	90 93 18 02 	sts	0x0218, r25	; 0x800218 <lastVoltage+0x1>
     40a:	80 93 17 02 	sts	0x0217, r24	; 0x800217 <lastVoltage>
     40e:	80 91 fb 01 	lds	r24, 0x01FB	; 0x8001fb <thisVoltage+0x2>
     412:	90 91 fc 01 	lds	r25, 0x01FC	; 0x8001fc <thisVoltage+0x3>
     416:	90 93 1a 02 	sts	0x021A, r25	; 0x80021a <lastVoltage+0x3>
     41a:	80 93 19 02 	sts	0x0219, r24	; 0x800219 <lastVoltage+0x2>
     41e:	80 91 fd 01 	lds	r24, 0x01FD	; 0x8001fd <thisVoltage+0x4>
     422:	90 91 fe 01 	lds	r25, 0x01FE	; 0x8001fe <thisVoltage+0x5>
     426:	90 93 1c 02 	sts	0x021C, r25	; 0x80021c <lastVoltage+0x5>
     42a:	80 93 1b 02 	sts	0x021B, r24	; 0x80021b <lastVoltage+0x4>
     42e:	80 91 ff 01 	lds	r24, 0x01FF	; 0x8001ff <thisVoltage+0x6>
     432:	90 91 00 02 	lds	r25, 0x0200	; 0x800200 <thisVoltage+0x7>
     436:	90 93 1e 02 	sts	0x021E, r25	; 0x80021e <lastVoltage+0x7>
     43a:	80 93 1d 02 	sts	0x021D, r24	; 0x80021d <lastVoltage+0x6>
     43e:	80 91 01 02 	lds	r24, 0x0201	; 0x800201 <thisVoltage+0x8>
     442:	90 91 02 02 	lds	r25, 0x0202	; 0x800202 <thisVoltage+0x9>
     446:	90 93 20 02 	sts	0x0220, r25	; 0x800220 <lastVoltage+0x9>
     44a:	80 93 1f 02 	sts	0x021F, r24	; 0x80021f <lastVoltage+0x8>
     44e:	80 91 03 02 	lds	r24, 0x0203	; 0x800203 <thisVoltage+0xa>
     452:	90 91 04 02 	lds	r25, 0x0204	; 0x800204 <thisVoltage+0xb>
     456:	90 93 22 02 	sts	0x0222, r25	; 0x800222 <lastVoltage+0xb>
     45a:	80 93 21 02 	sts	0x0221, r24	; 0x800221 <lastVoltage+0xa>
     45e:	df 91       	pop	r29
     460:	cf 91       	pop	r28
     462:	08 95       	ret
     464:	11 96       	adiw	r26, 0x01	; 1
     466:	9c 93       	st	X, r25
     468:	8e 93       	st	-X, r24
     46a:	b6 cf       	rjmp	.-148    	; 0x3d8 <applyPulse+0x30>

0000046c <calculateJacobian>:
     46c:	2f 92       	push	r2
     46e:	3f 92       	push	r3
     470:	4f 92       	push	r4
     472:	5f 92       	push	r5
     474:	6f 92       	push	r6
     476:	7f 92       	push	r7
     478:	8f 92       	push	r8
     47a:	9f 92       	push	r9
     47c:	af 92       	push	r10
     47e:	bf 92       	push	r11
     480:	cf 92       	push	r12
     482:	df 92       	push	r13
     484:	ef 92       	push	r14
     486:	ff 92       	push	r15
     488:	0f 93       	push	r16
     48a:	1f 93       	push	r17
     48c:	cf 93       	push	r28
     48e:	df 93       	push	r29
     490:	cd b7       	in	r28, 0x3d	; 61
     492:	de b7       	in	r29, 0x3e	; 62
     494:	c2 55       	subi	r28, 0x52	; 82
     496:	d1 09       	sbc	r29, r1
     498:	0f b6       	in	r0, 0x3f	; 63
     49a:	f8 94       	cli
     49c:	de bf       	out	0x3e, r29	; 62
     49e:	0f be       	out	0x3f, r0	; 63
     4a0:	cd bf       	out	0x3d, r28	; 61
     4a2:	2d 96       	adiw	r28, 0x0d	; 13
     4a4:	1f af       	std	Y+63, r17	; 0x3f
     4a6:	0e af       	std	Y+62, r16	; 0x3e
     4a8:	2d 97       	sbiw	r28, 0x0d	; 13
     4aa:	8c e0       	ldi	r24, 0x0C	; 12
     4ac:	ed e5       	ldi	r30, 0x5D	; 93
     4ae:	f1 e0       	ldi	r31, 0x01	; 1
     4b0:	de 01       	movw	r26, r28
     4b2:	dd 96       	adiw	r26, 0x3d	; 61
     4b4:	01 90       	ld	r0, Z+
     4b6:	0d 92       	st	X+, r0
     4b8:	8a 95       	dec	r24
     4ba:	e1 f7       	brne	.-8      	; 0x4b4 <calculateJacobian+0x48>
     4bc:	80 e1       	ldi	r24, 0x10	; 16
     4be:	98 ed       	ldi	r25, 0xD8	; 216
     4c0:	a0 e3       	ldi	r26, 0x30	; 48
     4c2:	b2 e4       	ldi	r27, 0x42	; 66
     4c4:	8d a3       	std	Y+37, r24	; 0x25
     4c6:	9e a3       	std	Y+38, r25	; 0x26
     4c8:	af a3       	std	Y+39, r26	; 0x27
     4ca:	b8 a7       	std	Y+40, r27	; 0x28
     4cc:	86 e8       	ldi	r24, 0x86	; 134
     4ce:	96 eb       	ldi	r25, 0xB6	; 182
     4d0:	a3 e8       	ldi	r26, 0x83	; 131
     4d2:	b2 ec       	ldi	r27, 0xC2	; 194
     4d4:	89 a7       	std	Y+41, r24	; 0x29
     4d6:	9a a7       	std	Y+42, r25	; 0x2a
     4d8:	ab a7       	std	Y+43, r26	; 0x2b
     4da:	bc a7       	std	Y+44, r27	; 0x2c
     4dc:	4a ea       	ldi	r20, 0xAA	; 170
     4de:	51 e7       	ldi	r21, 0x71	; 113
     4e0:	6e e7       	ldi	r22, 0x7E	; 126
     4e2:	72 ec       	ldi	r23, 0xC2	; 194
     4e4:	4d a7       	std	Y+45, r20	; 0x2d
     4e6:	5e a7       	std	Y+46, r21	; 0x2e
     4e8:	6f a7       	std	Y+47, r22	; 0x2f
     4ea:	78 ab       	std	Y+48, r23	; 0x30
     4ec:	89 ab       	std	Y+49, r24	; 0x31
     4ee:	9a ab       	std	Y+50, r25	; 0x32
     4f0:	ab ab       	std	Y+51, r26	; 0x33
     4f2:	bc ab       	std	Y+52, r27	; 0x34
     4f4:	83 e3       	ldi	r24, 0x33	; 51
     4f6:	93 e3       	ldi	r25, 0x33	; 51
     4f8:	ab e1       	ldi	r26, 0x1B	; 27
     4fa:	b1 ec       	ldi	r27, 0xC1	; 193
     4fc:	8d ab       	std	Y+53, r24	; 0x35
     4fe:	9e ab       	std	Y+54, r25	; 0x36
     500:	af ab       	std	Y+55, r26	; 0x37
     502:	b8 af       	std	Y+56, r27	; 0x38
     504:	81 ee       	ldi	r24, 0xE1	; 225
     506:	9a e3       	ldi	r25, 0x3A	; 58
     508:	af e1       	ldi	r26, 0x1F	; 31
     50a:	b3 ec       	ldi	r27, 0xC3	; 195
     50c:	89 af       	std	Y+57, r24	; 0x39
     50e:	9a af       	std	Y+58, r25	; 0x3a
     510:	ab af       	std	Y+59, r26	; 0x3b
     512:	bc af       	std	Y+60, r27	; 0x3c
     514:	ce 01       	movw	r24, r28
     516:	cd 96       	adiw	r24, 0x3d	; 61
     518:	2f 96       	adiw	r28, 0x0f	; 15
     51a:	9f af       	std	Y+63, r25	; 0x3f
     51c:	8e af       	std	Y+62, r24	; 0x3e
     51e:	2f 97       	sbiw	r28, 0x0f	; 15
     520:	8e 01       	movw	r16, r28
     522:	0f 5f       	subi	r16, 0xFF	; 255
     524:	1f 4f       	sbci	r17, 0xFF	; 255
     526:	de 01       	movw	r26, r28
     528:	95 96       	adiw	r26, 0x25	; 37
     52a:	2b 96       	adiw	r28, 0x0b	; 11
     52c:	bf af       	std	Y+63, r27	; 0x3f
     52e:	ae af       	std	Y+62, r26	; 0x3e
     530:	2b 97       	sbiw	r28, 0x0b	; 11
     532:	86 e8       	ldi	r24, 0x86	; 134
     534:	96 eb       	ldi	r25, 0xB6	; 182
     536:	a3 e8       	ldi	r26, 0x83	; 131
     538:	b2 ec       	ldi	r27, 0xC2	; 194
     53a:	63 96       	adiw	r28, 0x13	; 19
     53c:	8c af       	std	Y+60, r24	; 0x3c
     53e:	9d af       	std	Y+61, r25	; 0x3d
     540:	ae af       	std	Y+62, r26	; 0x3e
     542:	bf af       	std	Y+63, r27	; 0x3f
     544:	63 97       	sbiw	r28, 0x13	; 19
     546:	80 e1       	ldi	r24, 0x10	; 16
     548:	48 2e       	mov	r4, r24
     54a:	88 ed       	ldi	r24, 0xD8	; 216
     54c:	58 2e       	mov	r5, r24
     54e:	80 e3       	ldi	r24, 0x30	; 48
     550:	68 2e       	mov	r6, r24
     552:	82 e4       	ldi	r24, 0x42	; 66
     554:	78 2e       	mov	r7, r24
     556:	21 2c       	mov	r2, r1
     558:	31 2c       	mov	r3, r1
     55a:	2f 96       	adiw	r28, 0x0f	; 15
     55c:	ae ad       	ldd	r26, Y+62	; 0x3e
     55e:	bf ad       	ldd	r27, Y+63	; 0x3f
     560:	2f 97       	sbiw	r28, 0x0f	; 15
     562:	8d 90       	ld	r8, X+
     564:	9d 90       	ld	r9, X+
     566:	ad 90       	ld	r10, X+
     568:	bd 90       	ld	r11, X+
     56a:	2f 96       	adiw	r28, 0x0f	; 15
     56c:	bf af       	std	Y+63, r27	; 0x3f
     56e:	ae af       	std	Y+62, r26	; 0x3e
     570:	2f 97       	sbiw	r28, 0x0f	; 15
     572:	c5 01       	movw	r24, r10
     574:	b4 01       	movw	r22, r8
     576:	0e 94 27 14 	call	0x284e	; 0x284e <sin>
     57a:	6b 01       	movw	r12, r22
     57c:	7c 01       	movw	r14, r24
     57e:	c5 01       	movw	r24, r10
     580:	b4 01       	movw	r22, r8
     582:	0e 94 98 11 	call	0x2330	; 0x2330 <cos>
     586:	4b 01       	movw	r8, r22
     588:	5c 01       	movw	r10, r24
     58a:	a3 01       	movw	r20, r6
     58c:	92 01       	movw	r18, r4
     58e:	c7 01       	movw	r24, r14
     590:	b6 01       	movw	r22, r12
     592:	0e 94 a4 13 	call	0x2748	; 0x2748 <__mulsf3>
     596:	2b 01       	movw	r4, r22
     598:	3c 01       	movw	r6, r24
     59a:	63 96       	adiw	r28, 0x13	; 19
     59c:	2c ad       	ldd	r18, Y+60	; 0x3c
     59e:	3d ad       	ldd	r19, Y+61	; 0x3d
     5a0:	4e ad       	ldd	r20, Y+62	; 0x3e
     5a2:	5f ad       	ldd	r21, Y+63	; 0x3f
     5a4:	63 97       	sbiw	r28, 0x13	; 19
     5a6:	c5 01       	movw	r24, r10
     5a8:	b4 01       	movw	r22, r8
     5aa:	0e 94 a4 13 	call	0x2748	; 0x2748 <__mulsf3>
     5ae:	9b 01       	movw	r18, r22
     5b0:	ac 01       	movw	r20, r24
     5b2:	c3 01       	movw	r24, r6
     5b4:	b2 01       	movw	r22, r4
     5b6:	0e 94 cd 10 	call	0x219a	; 0x219a <__subsf3>
     5ba:	20 e0       	ldi	r18, 0x00	; 0
     5bc:	30 e0       	ldi	r19, 0x00	; 0
     5be:	48 e9       	ldi	r20, 0x98	; 152
     5c0:	51 e4       	ldi	r21, 0x41	; 65
     5c2:	0e 94 9b 11 	call	0x2336	; 0x2336 <__divsf3>
     5c6:	f8 01       	movw	r30, r16
     5c8:	60 83       	st	Z, r22
     5ca:	71 83       	std	Z+1, r23	; 0x01
     5cc:	82 83       	std	Z+2, r24	; 0x02
     5ce:	93 83       	std	Z+3, r25	; 0x03
     5d0:	20 e0       	ldi	r18, 0x00	; 0
     5d2:	30 e0       	ldi	r19, 0x00	; 0
     5d4:	48 e9       	ldi	r20, 0x98	; 152
     5d6:	51 e4       	ldi	r21, 0x41	; 65
     5d8:	c5 01       	movw	r24, r10
     5da:	b4 01       	movw	r22, r8
     5dc:	0e 94 9b 11 	call	0x2336	; 0x2336 <__divsf3>
     5e0:	d8 01       	movw	r26, r16
     5e2:	14 96       	adiw	r26, 0x04	; 4
     5e4:	6d 93       	st	X+, r22
     5e6:	7d 93       	st	X+, r23
     5e8:	8d 93       	st	X+, r24
     5ea:	9c 93       	st	X, r25
     5ec:	17 97       	sbiw	r26, 0x07	; 7
     5ee:	20 e0       	ldi	r18, 0x00	; 0
     5f0:	30 e0       	ldi	r19, 0x00	; 0
     5f2:	48 e9       	ldi	r20, 0x98	; 152
     5f4:	51 e4       	ldi	r21, 0x41	; 65
     5f6:	c7 01       	movw	r24, r14
     5f8:	b6 01       	movw	r22, r12
     5fa:	0e 94 9b 11 	call	0x2336	; 0x2336 <__divsf3>
     5fe:	f8 01       	movw	r30, r16
     600:	60 87       	std	Z+8, r22	; 0x08
     602:	71 87       	std	Z+9, r23	; 0x09
     604:	82 87       	std	Z+10, r24	; 0x0a
     606:	93 87       	std	Z+11, r25	; 0x0b
     608:	ff ef       	ldi	r31, 0xFF	; 255
     60a:	2f 1a       	sub	r2, r31
     60c:	3f 0a       	sbc	r3, r31
     60e:	04 5f       	subi	r16, 0xF4	; 244
     610:	1f 4f       	sbci	r17, 0xFF	; 255
     612:	2b 96       	adiw	r28, 0x0b	; 11
     614:	8e ad       	ldd	r24, Y+62	; 0x3e
     616:	9f ad       	ldd	r25, Y+63	; 0x3f
     618:	2b 97       	sbiw	r28, 0x0b	; 11
     61a:	08 96       	adiw	r24, 0x08	; 8
     61c:	2b 96       	adiw	r28, 0x0b	; 11
     61e:	9f af       	std	Y+63, r25	; 0x3f
     620:	8e af       	std	Y+62, r24	; 0x3e
     622:	2b 97       	sbiw	r28, 0x0b	; 11
     624:	93 e0       	ldi	r25, 0x03	; 3
     626:	29 16       	cp	r2, r25
     628:	31 04       	cpc	r3, r1
     62a:	b1 f0       	breq	.+44     	; 0x658 <calculateJacobian+0x1ec>
     62c:	2b 96       	adiw	r28, 0x0b	; 11
     62e:	ae ad       	ldd	r26, Y+62	; 0x3e
     630:	bf ad       	ldd	r27, Y+63	; 0x3f
     632:	2b 97       	sbiw	r28, 0x0b	; 11
     634:	4d 90       	ld	r4, X+
     636:	5d 90       	ld	r5, X+
     638:	6d 90       	ld	r6, X+
     63a:	7c 90       	ld	r7, X
     63c:	13 97       	sbiw	r26, 0x03	; 3
     63e:	14 96       	adiw	r26, 0x04	; 4
     640:	8d 91       	ld	r24, X+
     642:	9d 91       	ld	r25, X+
     644:	0d 90       	ld	r0, X+
     646:	bc 91       	ld	r27, X
     648:	a0 2d       	mov	r26, r0
     64a:	63 96       	adiw	r28, 0x13	; 19
     64c:	8c af       	std	Y+60, r24	; 0x3c
     64e:	9d af       	std	Y+61, r25	; 0x3d
     650:	ae af       	std	Y+62, r26	; 0x3e
     652:	bf af       	std	Y+63, r27	; 0x3f
     654:	63 97       	sbiw	r28, 0x13	; 19
     656:	81 cf       	rjmp	.-254    	; 0x55a <calculateJacobian+0xee>
     658:	8d 85       	ldd	r24, Y+13	; 0x0d
     65a:	9e 85       	ldd	r25, Y+14	; 0x0e
     65c:	af 85       	ldd	r26, Y+15	; 0x0f
     65e:	b8 89       	ldd	r27, Y+16	; 0x10
     660:	2d 96       	adiw	r28, 0x0d	; 13
     662:	ee ad       	ldd	r30, Y+62	; 0x3e
     664:	ff ad       	ldd	r31, Y+63	; 0x3f
     666:	2d 97       	sbiw	r28, 0x0d	; 13
     668:	80 83       	st	Z, r24
     66a:	91 83       	std	Z+1, r25	; 0x01
     66c:	a2 83       	std	Z+2, r26	; 0x02
     66e:	b3 83       	std	Z+3, r27	; 0x03
     670:	89 89       	ldd	r24, Y+17	; 0x11
     672:	9a 89       	ldd	r25, Y+18	; 0x12
     674:	ab 89       	ldd	r26, Y+19	; 0x13
     676:	bc 89       	ldd	r27, Y+20	; 0x14
     678:	84 83       	std	Z+4, r24	; 0x04
     67a:	95 83       	std	Z+5, r25	; 0x05
     67c:	a6 83       	std	Z+6, r26	; 0x06
     67e:	b7 83       	std	Z+7, r27	; 0x07
     680:	8d 89       	ldd	r24, Y+21	; 0x15
     682:	9e 89       	ldd	r25, Y+22	; 0x16
     684:	af 89       	ldd	r26, Y+23	; 0x17
     686:	b8 8d       	ldd	r27, Y+24	; 0x18
     688:	80 87       	std	Z+8, r24	; 0x08
     68a:	91 87       	std	Z+9, r25	; 0x09
     68c:	a2 87       	std	Z+10, r26	; 0x0a
     68e:	b3 87       	std	Z+11, r27	; 0x0b
     690:	89 8d       	ldd	r24, Y+25	; 0x19
     692:	9a 8d       	ldd	r25, Y+26	; 0x1a
     694:	ab 8d       	ldd	r26, Y+27	; 0x1b
     696:	bc 8d       	ldd	r27, Y+28	; 0x1c
     698:	84 87       	std	Z+12, r24	; 0x0c
     69a:	95 87       	std	Z+13, r25	; 0x0d
     69c:	a6 87       	std	Z+14, r26	; 0x0e
     69e:	b7 87       	std	Z+15, r27	; 0x0f
     6a0:	8d 8d       	ldd	r24, Y+29	; 0x1d
     6a2:	9e 8d       	ldd	r25, Y+30	; 0x1e
     6a4:	af 8d       	ldd	r26, Y+31	; 0x1f
     6a6:	b8 a1       	ldd	r27, Y+32	; 0x20
     6a8:	80 8b       	std	Z+16, r24	; 0x10
     6aa:	91 8b       	std	Z+17, r25	; 0x11
     6ac:	a2 8b       	std	Z+18, r26	; 0x12
     6ae:	b3 8b       	std	Z+19, r27	; 0x13
     6b0:	89 a1       	ldd	r24, Y+33	; 0x21
     6b2:	9a a1       	ldd	r25, Y+34	; 0x22
     6b4:	ab a1       	ldd	r26, Y+35	; 0x23
     6b6:	bc a1       	ldd	r27, Y+36	; 0x24
     6b8:	84 8b       	std	Z+20, r24	; 0x14
     6ba:	95 8b       	std	Z+21, r25	; 0x15
     6bc:	a6 8b       	std	Z+22, r26	; 0x16
     6be:	b7 8b       	std	Z+23, r27	; 0x17
     6c0:	89 81       	ldd	r24, Y+1	; 0x01
     6c2:	9a 81       	ldd	r25, Y+2	; 0x02
     6c4:	ab 81       	ldd	r26, Y+3	; 0x03
     6c6:	bc 81       	ldd	r27, Y+4	; 0x04
     6c8:	80 8f       	std	Z+24, r24	; 0x18
     6ca:	91 8f       	std	Z+25, r25	; 0x19
     6cc:	a2 8f       	std	Z+26, r26	; 0x1a
     6ce:	b3 8f       	std	Z+27, r27	; 0x1b
     6d0:	8d 81       	ldd	r24, Y+5	; 0x05
     6d2:	9e 81       	ldd	r25, Y+6	; 0x06
     6d4:	af 81       	ldd	r26, Y+7	; 0x07
     6d6:	b8 85       	ldd	r27, Y+8	; 0x08
     6d8:	84 8f       	std	Z+28, r24	; 0x1c
     6da:	95 8f       	std	Z+29, r25	; 0x1d
     6dc:	a6 8f       	std	Z+30, r26	; 0x1e
     6de:	b7 8f       	std	Z+31, r27	; 0x1f
     6e0:	89 85       	ldd	r24, Y+9	; 0x09
     6e2:	9a 85       	ldd	r25, Y+10	; 0x0a
     6e4:	ab 85       	ldd	r26, Y+11	; 0x0b
     6e6:	bc 85       	ldd	r27, Y+12	; 0x0c
     6e8:	80 a3       	std	Z+32, r24	; 0x20
     6ea:	91 a3       	std	Z+33, r25	; 0x21
     6ec:	a2 a3       	std	Z+34, r26	; 0x22
     6ee:	b3 a3       	std	Z+35, r27	; 0x23
     6f0:	ce 5a       	subi	r28, 0xAE	; 174
     6f2:	df 4f       	sbci	r29, 0xFF	; 255
     6f4:	0f b6       	in	r0, 0x3f	; 63
     6f6:	f8 94       	cli
     6f8:	de bf       	out	0x3e, r29	; 62
     6fa:	0f be       	out	0x3f, r0	; 63
     6fc:	cd bf       	out	0x3d, r28	; 61
     6fe:	df 91       	pop	r29
     700:	cf 91       	pop	r28
     702:	1f 91       	pop	r17
     704:	0f 91       	pop	r16
     706:	ff 90       	pop	r15
     708:	ef 90       	pop	r14
     70a:	df 90       	pop	r13
     70c:	cf 90       	pop	r12
     70e:	bf 90       	pop	r11
     710:	af 90       	pop	r10
     712:	9f 90       	pop	r9
     714:	8f 90       	pop	r8
     716:	7f 90       	pop	r7
     718:	6f 90       	pop	r6
     71a:	5f 90       	pop	r5
     71c:	4f 90       	pop	r4
     71e:	3f 90       	pop	r3
     720:	2f 90       	pop	r2
     722:	08 95       	ret

00000724 <rotateVector>:
     724:	2f 92       	push	r2
     726:	3f 92       	push	r3
     728:	4f 92       	push	r4
     72a:	5f 92       	push	r5
     72c:	7f 92       	push	r7
     72e:	8f 92       	push	r8
     730:	9f 92       	push	r9
     732:	af 92       	push	r10
     734:	bf 92       	push	r11
     736:	cf 92       	push	r12
     738:	df 92       	push	r13
     73a:	ef 92       	push	r14
     73c:	ff 92       	push	r15
     73e:	0f 93       	push	r16
     740:	1f 93       	push	r17
     742:	cf 93       	push	r28
     744:	df 93       	push	r29
     746:	cd b7       	in	r28, 0x3d	; 61
     748:	de b7       	in	r29, 0x3e	; 62
     74a:	68 97       	sbiw	r28, 0x18	; 24
     74c:	0f b6       	in	r0, 0x3f	; 63
     74e:	f8 94       	cli
     750:	de bf       	out	0x3e, r29	; 62
     752:	0f be       	out	0x3f, r0	; 63
     754:	cd bf       	out	0x3d, r28	; 61
     756:	29 87       	std	Y+9, r18	; 0x09
     758:	3a 87       	std	Y+10, r19	; 0x0a
     75a:	4b 87       	std	Y+11, r20	; 0x0b
     75c:	5c 87       	std	Y+12, r21	; 0x0c
     75e:	6d 87       	std	Y+13, r22	; 0x0d
     760:	7e 87       	std	Y+14, r23	; 0x0e
     762:	8f 87       	std	Y+15, r24	; 0x0f
     764:	98 8b       	std	Y+16, r25	; 0x10
     766:	47 01       	movw	r8, r14
     768:	58 01       	movw	r10, r16
     76a:	89 85       	ldd	r24, Y+9	; 0x09
     76c:	9a 85       	ldd	r25, Y+10	; 0x0a
     76e:	ab 85       	ldd	r26, Y+11	; 0x0b
     770:	bc 85       	ldd	r27, Y+12	; 0x0c
     772:	89 8b       	std	Y+17, r24	; 0x11
     774:	9a 8b       	std	Y+18, r25	; 0x12
     776:	ab 8b       	std	Y+19, r26	; 0x13
     778:	bc 8b       	std	Y+20, r27	; 0x14
     77a:	2d 84       	ldd	r2, Y+13	; 0x0d
     77c:	3e 84       	ldd	r3, Y+14	; 0x0e
     77e:	4f 84       	ldd	r4, Y+15	; 0x0f
     780:	58 88       	ldd	r5, Y+16	; 0x10
     782:	c8 01       	movw	r24, r16
     784:	b7 01       	movw	r22, r14
     786:	0e 94 98 11 	call	0x2330	; 0x2330 <cos>
     78a:	6b 01       	movw	r12, r22
     78c:	7c 01       	movw	r14, r24
     78e:	c5 01       	movw	r24, r10
     790:	b4 01       	movw	r22, r8
     792:	0e 94 27 14 	call	0x284e	; 0x284e <sin>
     796:	4b 01       	movw	r8, r22
     798:	5c 01       	movw	r10, r24
     79a:	29 89       	ldd	r18, Y+17	; 0x11
     79c:	3a 89       	ldd	r19, Y+18	; 0x12
     79e:	4b 89       	ldd	r20, Y+19	; 0x13
     7a0:	5c 89       	ldd	r21, Y+20	; 0x14
     7a2:	c7 01       	movw	r24, r14
     7a4:	b6 01       	movw	r22, r12
     7a6:	0e 94 a4 13 	call	0x2748	; 0x2748 <__mulsf3>
     7aa:	6d 8b       	std	Y+21, r22	; 0x15
     7ac:	7e 8b       	std	Y+22, r23	; 0x16
     7ae:	8f 8b       	std	Y+23, r24	; 0x17
     7b0:	98 8f       	std	Y+24, r25	; 0x18
     7b2:	a2 01       	movw	r20, r4
     7b4:	91 01       	movw	r18, r2
     7b6:	c5 01       	movw	r24, r10
     7b8:	b4 01       	movw	r22, r8
     7ba:	0e 94 a4 13 	call	0x2748	; 0x2748 <__mulsf3>
     7be:	9b 01       	movw	r18, r22
     7c0:	ac 01       	movw	r20, r24
     7c2:	6d 89       	ldd	r22, Y+21	; 0x15
     7c4:	7e 89       	ldd	r23, Y+22	; 0x16
     7c6:	8f 89       	ldd	r24, Y+23	; 0x17
     7c8:	98 8d       	ldd	r25, Y+24	; 0x18
     7ca:	0e 94 cd 10 	call	0x219a	; 0x219a <__subsf3>
     7ce:	76 2e       	mov	r7, r22
     7d0:	ab 01       	movw	r20, r22
     7d2:	bc 01       	movw	r22, r24
     7d4:	49 83       	std	Y+1, r20	; 0x01
     7d6:	5a 83       	std	Y+2, r21	; 0x02
     7d8:	6b 83       	std	Y+3, r22	; 0x03
     7da:	7c 83       	std	Y+4, r23	; 0x04
     7dc:	29 89       	ldd	r18, Y+17	; 0x11
     7de:	3a 89       	ldd	r19, Y+18	; 0x12
     7e0:	4b 89       	ldd	r20, Y+19	; 0x13
     7e2:	5c 89       	ldd	r21, Y+20	; 0x14
     7e4:	c5 01       	movw	r24, r10
     7e6:	b4 01       	movw	r22, r8
     7e8:	0e 94 a4 13 	call	0x2748	; 0x2748 <__mulsf3>
     7ec:	4b 01       	movw	r8, r22
     7ee:	5c 01       	movw	r10, r24
     7f0:	a2 01       	movw	r20, r4
     7f2:	91 01       	movw	r18, r2
     7f4:	c7 01       	movw	r24, r14
     7f6:	b6 01       	movw	r22, r12
     7f8:	0e 94 a4 13 	call	0x2748	; 0x2748 <__mulsf3>
     7fc:	9b 01       	movw	r18, r22
     7fe:	ac 01       	movw	r20, r24
     800:	c5 01       	movw	r24, r10
     802:	b4 01       	movw	r22, r8
     804:	0e 94 ce 10 	call	0x219c	; 0x219c <__addsf3>
     808:	e6 2f       	mov	r30, r22
     80a:	46 2f       	mov	r20, r22
     80c:	57 2f       	mov	r21, r23
     80e:	bc 01       	movw	r22, r24
     810:	4d 83       	std	Y+5, r20	; 0x05
     812:	5e 83       	std	Y+6, r21	; 0x06
     814:	6f 83       	std	Y+7, r22	; 0x07
     816:	78 87       	std	Y+8, r23	; 0x08
     818:	27 2d       	mov	r18, r7
     81a:	3a 81       	ldd	r19, Y+2	; 0x02
     81c:	4b 81       	ldd	r20, Y+3	; 0x03
     81e:	5c 81       	ldd	r21, Y+4	; 0x04
     820:	6e 2f       	mov	r22, r30
     822:	7e 81       	ldd	r23, Y+6	; 0x06
     824:	8f 81       	ldd	r24, Y+7	; 0x07
     826:	98 85       	ldd	r25, Y+8	; 0x08
     828:	68 96       	adiw	r28, 0x18	; 24
     82a:	0f b6       	in	r0, 0x3f	; 63
     82c:	f8 94       	cli
     82e:	de bf       	out	0x3e, r29	; 62
     830:	0f be       	out	0x3f, r0	; 63
     832:	cd bf       	out	0x3d, r28	; 61
     834:	df 91       	pop	r29
     836:	cf 91       	pop	r28
     838:	1f 91       	pop	r17
     83a:	0f 91       	pop	r16
     83c:	ff 90       	pop	r15
     83e:	ef 90       	pop	r14
     840:	df 90       	pop	r13
     842:	cf 90       	pop	r12
     844:	bf 90       	pop	r11
     846:	af 90       	pop	r10
     848:	9f 90       	pop	r9
     84a:	8f 90       	pop	r8
     84c:	7f 90       	pop	r7
     84e:	5f 90       	pop	r5
     850:	4f 90       	pop	r4
     852:	3f 90       	pop	r3
     854:	2f 90       	pop	r2
     856:	08 95       	ret

00000858 <medianFilter>:
     858:	2f 92       	push	r2
     85a:	3f 92       	push	r3
     85c:	4f 92       	push	r4
     85e:	5f 92       	push	r5
     860:	6f 92       	push	r6
     862:	7f 92       	push	r7
     864:	8f 92       	push	r8
     866:	9f 92       	push	r9
     868:	af 92       	push	r10
     86a:	bf 92       	push	r11
     86c:	cf 92       	push	r12
     86e:	df 92       	push	r13
     870:	ef 92       	push	r14
     872:	ff 92       	push	r15
     874:	0f 93       	push	r16
     876:	1f 93       	push	r17
     878:	cf 93       	push	r28
     87a:	df 93       	push	r29
     87c:	4c 01       	movw	r8, r24
     87e:	1b 01       	movw	r2, r22
     880:	5b 01       	movw	r10, r22
     882:	81 e0       	ldi	r24, 0x01	; 1
     884:	a8 1a       	sub	r10, r24
     886:	b1 08       	sbc	r11, r1
     888:	1a 14       	cp	r1, r10
     88a:	1b 04       	cpc	r1, r11
     88c:	7c f5       	brge	.+94     	; 0x8ec <medianFilter+0x94>
     88e:	8b 01       	movw	r16, r22
     890:	01 50       	subi	r16, 0x01	; 1
     892:	10 4c       	sbci	r17, 0xC0	; 192
     894:	00 0f       	add	r16, r16
     896:	11 1f       	adc	r17, r17
     898:	00 0f       	add	r16, r16
     89a:	11 1f       	adc	r17, r17
     89c:	08 0d       	add	r16, r8
     89e:	19 1d       	adc	r17, r9
     8a0:	e4 01       	movw	r28, r8
     8a2:	c9 90       	ld	r12, Y+
     8a4:	d9 90       	ld	r13, Y+
     8a6:	e9 90       	ld	r14, Y+
     8a8:	f9 90       	ld	r15, Y+
     8aa:	48 80       	ld	r4, Y
     8ac:	59 80       	ldd	r5, Y+1	; 0x01
     8ae:	6a 80       	ldd	r6, Y+2	; 0x02
     8b0:	7b 80       	ldd	r7, Y+3	; 0x03
     8b2:	a3 01       	movw	r20, r6
     8b4:	92 01       	movw	r18, r4
     8b6:	c7 01       	movw	r24, r14
     8b8:	b6 01       	movw	r22, r12
     8ba:	0e 94 5f 13 	call	0x26be	; 0x26be <__gesf2>
     8be:	18 16       	cp	r1, r24
     8c0:	54 f4       	brge	.+20     	; 0x8d6 <medianFilter+0x7e>
     8c2:	fe 01       	movw	r30, r28
     8c4:	34 97       	sbiw	r30, 0x04	; 4
     8c6:	40 82       	st	Z, r4
     8c8:	51 82       	std	Z+1, r5	; 0x01
     8ca:	62 82       	std	Z+2, r6	; 0x02
     8cc:	73 82       	std	Z+3, r7	; 0x03
     8ce:	c8 82       	st	Y, r12
     8d0:	d9 82       	std	Y+1, r13	; 0x01
     8d2:	ea 82       	std	Y+2, r14	; 0x02
     8d4:	fb 82       	std	Y+3, r15	; 0x03
     8d6:	c0 17       	cp	r28, r16
     8d8:	d1 07       	cpc	r29, r17
     8da:	19 f7       	brne	.-58     	; 0x8a2 <medianFilter+0x4a>
     8dc:	81 e0       	ldi	r24, 0x01	; 1
     8de:	a8 1a       	sub	r10, r24
     8e0:	b1 08       	sbc	r11, r1
     8e2:	04 50       	subi	r16, 0x04	; 4
     8e4:	11 09       	sbc	r17, r1
     8e6:	a1 14       	cp	r10, r1
     8e8:	b1 04       	cpc	r11, r1
     8ea:	d1 f6       	brne	.-76     	; 0x8a0 <medianFilter+0x48>
     8ec:	20 fe       	sbrs	r2, 0
     8ee:	22 c0       	rjmp	.+68     	; 0x934 <medianFilter+0xdc>
     8f0:	37 fc       	sbrc	r3, 7
     8f2:	3e c0       	rjmp	.+124    	; 0x970 <medianFilter+0x118>
     8f4:	35 94       	asr	r3
     8f6:	27 94       	ror	r2
     8f8:	f1 01       	movw	r30, r2
     8fa:	ee 0f       	add	r30, r30
     8fc:	ff 1f       	adc	r31, r31
     8fe:	ee 0f       	add	r30, r30
     900:	ff 1f       	adc	r31, r31
     902:	e8 0d       	add	r30, r8
     904:	f9 1d       	adc	r31, r9
     906:	60 81       	ld	r22, Z
     908:	71 81       	ldd	r23, Z+1	; 0x01
     90a:	82 81       	ldd	r24, Z+2	; 0x02
     90c:	93 81       	ldd	r25, Z+3	; 0x03
     90e:	df 91       	pop	r29
     910:	cf 91       	pop	r28
     912:	1f 91       	pop	r17
     914:	0f 91       	pop	r16
     916:	ff 90       	pop	r15
     918:	ef 90       	pop	r14
     91a:	df 90       	pop	r13
     91c:	cf 90       	pop	r12
     91e:	bf 90       	pop	r11
     920:	af 90       	pop	r10
     922:	9f 90       	pop	r9
     924:	8f 90       	pop	r8
     926:	7f 90       	pop	r7
     928:	6f 90       	pop	r6
     92a:	5f 90       	pop	r5
     92c:	4f 90       	pop	r4
     92e:	3f 90       	pop	r3
     930:	2f 90       	pop	r2
     932:	08 95       	ret
     934:	37 fc       	sbrc	r3, 7
     936:	20 c0       	rjmp	.+64     	; 0x978 <medianFilter+0x120>
     938:	f1 01       	movw	r30, r2
     93a:	f5 95       	asr	r31
     93c:	e7 95       	ror	r30
     93e:	e1 50       	subi	r30, 0x01	; 1
     940:	f0 4c       	sbci	r31, 0xC0	; 192
     942:	ee 0f       	add	r30, r30
     944:	ff 1f       	adc	r31, r31
     946:	ee 0f       	add	r30, r30
     948:	ff 1f       	adc	r31, r31
     94a:	e8 0d       	add	r30, r8
     94c:	f9 1d       	adc	r31, r9
     94e:	20 81       	ld	r18, Z
     950:	31 81       	ldd	r19, Z+1	; 0x01
     952:	42 81       	ldd	r20, Z+2	; 0x02
     954:	53 81       	ldd	r21, Z+3	; 0x03
     956:	64 81       	ldd	r22, Z+4	; 0x04
     958:	75 81       	ldd	r23, Z+5	; 0x05
     95a:	86 81       	ldd	r24, Z+6	; 0x06
     95c:	97 81       	ldd	r25, Z+7	; 0x07
     95e:	0e 94 ce 10 	call	0x219c	; 0x219c <__addsf3>
     962:	20 e0       	ldi	r18, 0x00	; 0
     964:	30 e0       	ldi	r19, 0x00	; 0
     966:	40 e0       	ldi	r20, 0x00	; 0
     968:	5f e3       	ldi	r21, 0x3F	; 63
     96a:	0e 94 a4 13 	call	0x2748	; 0x2748 <__mulsf3>
     96e:	cf cf       	rjmp	.-98     	; 0x90e <medianFilter+0xb6>
     970:	8f ef       	ldi	r24, 0xFF	; 255
     972:	28 1a       	sub	r2, r24
     974:	38 0a       	sbc	r3, r24
     976:	be cf       	rjmp	.-132    	; 0x8f4 <medianFilter+0x9c>
     978:	8f ef       	ldi	r24, 0xFF	; 255
     97a:	28 1a       	sub	r2, r24
     97c:	38 0a       	sbc	r3, r24
     97e:	dc cf       	rjmp	.-72     	; 0x938 <medianFilter+0xe0>

00000980 <getSensorData>:
     980:	ef 92       	push	r14
     982:	ff 92       	push	r15
     984:	0f 93       	push	r16
     986:	1f 93       	push	r17
     988:	cf 93       	push	r28
     98a:	df 93       	push	r29
     98c:	cd b7       	in	r28, 0x3d	; 61
     98e:	de b7       	in	r29, 0x3e	; 62
     990:	a8 97       	sbiw	r28, 0x28	; 40
     992:	0f b6       	in	r0, 0x3f	; 63
     994:	f8 94       	cli
     996:	de bf       	out	0x3e, r29	; 62
     998:	0f be       	out	0x3f, r0	; 63
     99a:	cd bf       	out	0x3d, r28	; 61
     99c:	8e 01       	movw	r16, r28
     99e:	0f 5f       	subi	r16, 0xFF	; 255
     9a0:	1f 4f       	sbci	r17, 0xFF	; 255
     9a2:	7e 01       	movw	r14, r28
     9a4:	85 e1       	ldi	r24, 0x15	; 21
     9a6:	e8 0e       	add	r14, r24
     9a8:	f1 1c       	adc	r15, r1
     9aa:	83 e0       	ldi	r24, 0x03	; 3
     9ac:	30 dc       	rcall	.-1952   	; 0x20e <ADC_read>
     9ae:	bc 01       	movw	r22, r24
     9b0:	99 0f       	add	r25, r25
     9b2:	88 0b       	sbc	r24, r24
     9b4:	99 0b       	sbc	r25, r25
     9b6:	0e 94 36 12 	call	0x246c	; 0x246c <__floatsisf>
     9ba:	f8 01       	movw	r30, r16
     9bc:	61 93       	st	Z+, r22
     9be:	71 93       	st	Z+, r23
     9c0:	81 93       	st	Z+, r24
     9c2:	91 93       	st	Z+, r25
     9c4:	8f 01       	movw	r16, r30
     9c6:	80 e0       	ldi	r24, 0x00	; 0
     9c8:	22 dc       	rcall	.-1980   	; 0x20e <ADC_read>
     9ca:	bc 01       	movw	r22, r24
     9cc:	99 0f       	add	r25, r25
     9ce:	88 0b       	sbc	r24, r24
     9d0:	99 0b       	sbc	r25, r25
     9d2:	0e 94 36 12 	call	0x246c	; 0x246c <__floatsisf>
     9d6:	f8 01       	movw	r30, r16
     9d8:	60 8b       	std	Z+16, r22	; 0x10
     9da:	71 8b       	std	Z+17, r23	; 0x11
     9dc:	82 8b       	std	Z+18, r24	; 0x12
     9de:	93 8b       	std	Z+19, r25	; 0x13
     9e0:	87 ea       	ldi	r24, 0xA7	; 167
     9e2:	91 e6       	ldi	r25, 0x61	; 97
     9e4:	01 97       	sbiw	r24, 0x01	; 1
     9e6:	f1 f7       	brne	.-4      	; 0x9e4 <getSensorData+0x64>
     9e8:	00 c0       	rjmp	.+0      	; 0x9ea <getSensorData+0x6a>
     9ea:	00 00       	nop
     9ec:	0e 15       	cp	r16, r14
     9ee:	1f 05       	cpc	r17, r15
     9f0:	e1 f6       	brne	.-72     	; 0x9aa <getSensorData+0x2a>
     9f2:	65 e0       	ldi	r22, 0x05	; 5
     9f4:	70 e0       	ldi	r23, 0x00	; 0
     9f6:	ce 01       	movw	r24, r28
     9f8:	01 96       	adiw	r24, 0x01	; 1
     9fa:	2e df       	rcall	.-420    	; 0x858 <medianFilter>
     9fc:	60 93 40 01 	sts	0x0140, r22	; 0x800140 <raw_sensor_data>
     a00:	70 93 41 01 	sts	0x0141, r23	; 0x800141 <raw_sensor_data+0x1>
     a04:	80 93 42 01 	sts	0x0142, r24	; 0x800142 <raw_sensor_data+0x2>
     a08:	90 93 43 01 	sts	0x0143, r25	; 0x800143 <raw_sensor_data+0x3>
     a0c:	65 e0       	ldi	r22, 0x05	; 5
     a0e:	70 e0       	ldi	r23, 0x00	; 0
     a10:	c8 01       	movw	r24, r16
     a12:	22 df       	rcall	.-444    	; 0x858 <medianFilter>
     a14:	60 93 44 01 	sts	0x0144, r22	; 0x800144 <raw_sensor_data+0x4>
     a18:	70 93 45 01 	sts	0x0145, r23	; 0x800145 <raw_sensor_data+0x5>
     a1c:	80 93 46 01 	sts	0x0146, r24	; 0x800146 <raw_sensor_data+0x6>
     a20:	90 93 47 01 	sts	0x0147, r25	; 0x800147 <raw_sensor_data+0x7>
     a24:	a8 96       	adiw	r28, 0x28	; 40
     a26:	0f b6       	in	r0, 0x3f	; 63
     a28:	f8 94       	cli
     a2a:	de bf       	out	0x3e, r29	; 62
     a2c:	0f be       	out	0x3f, r0	; 63
     a2e:	cd bf       	out	0x3d, r28	; 61
     a30:	df 91       	pop	r29
     a32:	cf 91       	pop	r28
     a34:	1f 91       	pop	r17
     a36:	0f 91       	pop	r16
     a38:	ff 90       	pop	r15
     a3a:	ef 90       	pop	r14
     a3c:	08 95       	ret

00000a3e <getHome>:
     a3e:	3f 92       	push	r3
     a40:	4f 92       	push	r4
     a42:	5f 92       	push	r5
     a44:	6f 92       	push	r6
     a46:	7f 92       	push	r7
     a48:	8f 92       	push	r8
     a4a:	9f 92       	push	r9
     a4c:	af 92       	push	r10
     a4e:	bf 92       	push	r11
     a50:	cf 92       	push	r12
     a52:	df 92       	push	r13
     a54:	ef 92       	push	r14
     a56:	ff 92       	push	r15
     a58:	0f 93       	push	r16
     a5a:	1f 93       	push	r17
     a5c:	cf 93       	push	r28
     a5e:	df 93       	push	r29
     a60:	cd b7       	in	r28, 0x3d	; 61
     a62:	de b7       	in	r29, 0x3e	; 62
     a64:	a4 97       	sbiw	r28, 0x24	; 36
     a66:	0f b6       	in	r0, 0x3f	; 63
     a68:	f8 94       	cli
     a6a:	de bf       	out	0x3e, r29	; 62
     a6c:	0f be       	out	0x3f, r0	; 63
     a6e:	cd bf       	out	0x3d, r28	; 61
     a70:	87 df       	rcall	.-242    	; 0x980 <getSensorData>
     a72:	00 e4       	ldi	r16, 0x40	; 64
     a74:	11 e0       	ldi	r17, 0x01	; 1
     a76:	20 e0       	ldi	r18, 0x00	; 0
     a78:	30 e0       	ldi	r19, 0x00	; 0
     a7a:	40 e8       	ldi	r20, 0x80	; 128
     a7c:	5a e3       	ldi	r21, 0x3A	; 58
     a7e:	d8 01       	movw	r26, r16
     a80:	6d 91       	ld	r22, X+
     a82:	7d 91       	ld	r23, X+
     a84:	8d 91       	ld	r24, X+
     a86:	9c 91       	ld	r25, X
     a88:	0e 94 a4 13 	call	0x2748	; 0x2748 <__mulsf3>
     a8c:	25 ea       	ldi	r18, 0xA5	; 165
     a8e:	3e e4       	ldi	r19, 0x4E	; 78
     a90:	48 eb       	ldi	r20, 0xB8	; 184
     a92:	50 e4       	ldi	r21, 0x40	; 64
     a94:	0e 94 a4 13 	call	0x2748	; 0x2748 <__mulsf3>
     a98:	20 e5       	ldi	r18, 0x50	; 80
     a9a:	3d e8       	ldi	r19, 0x8D	; 141
     a9c:	47 ea       	ldi	r20, 0xA7	; 167
     a9e:	5f e3       	ldi	r21, 0x3F	; 63
     aa0:	0e 94 cd 10 	call	0x219a	; 0x219a <__subsf3>
     aa4:	4b 01       	movw	r8, r22
     aa6:	5c 01       	movw	r10, r24
     aa8:	20 e0       	ldi	r18, 0x00	; 0
     aaa:	30 e0       	ldi	r19, 0x00	; 0
     aac:	40 e8       	ldi	r20, 0x80	; 128
     aae:	5a e3       	ldi	r21, 0x3A	; 58
     ab0:	f8 01       	movw	r30, r16
     ab2:	64 81       	ldd	r22, Z+4	; 0x04
     ab4:	75 81       	ldd	r23, Z+5	; 0x05
     ab6:	86 81       	ldd	r24, Z+6	; 0x06
     ab8:	97 81       	ldd	r25, Z+7	; 0x07
     aba:	0e 94 a4 13 	call	0x2748	; 0x2748 <__mulsf3>
     abe:	25 ea       	ldi	r18, 0xA5	; 165
     ac0:	3e e4       	ldi	r19, 0x4E	; 78
     ac2:	48 eb       	ldi	r20, 0xB8	; 184
     ac4:	50 e4       	ldi	r21, 0x40	; 64
     ac6:	0e 94 a4 13 	call	0x2748	; 0x2748 <__mulsf3>
     aca:	20 e5       	ldi	r18, 0x50	; 80
     acc:	3d e8       	ldi	r19, 0x8D	; 141
     ace:	47 ea       	ldi	r20, 0xA7	; 167
     ad0:	5f e3       	ldi	r21, 0x3F	; 63
     ad2:	0e 94 cd 10 	call	0x219a	; 0x219a <__subsf3>
     ad6:	2b 01       	movw	r4, r22
     ad8:	3c 01       	movw	r6, r24
     ada:	08 e4       	ldi	r16, 0x48	; 72
     adc:	11 e0       	ldi	r17, 0x01	; 1
     ade:	d8 01       	movw	r26, r16
     ae0:	cd 90       	ld	r12, X+
     ae2:	dd 90       	ld	r13, X+
     ae4:	ed 90       	ld	r14, X+
     ae6:	fc 90       	ld	r15, X
     ae8:	c5 01       	movw	r24, r10
     aea:	b4 01       	movw	r22, r8
     aec:	0e 94 98 11 	call	0x2330	; 0x2330 <cos>
     af0:	9b 01       	movw	r18, r22
     af2:	ac 01       	movw	r20, r24
     af4:	c7 01       	movw	r24, r14
     af6:	b6 01       	movw	r22, r12
     af8:	0e 94 a4 13 	call	0x2748	; 0x2748 <__mulsf3>
     afc:	20 e0       	ldi	r18, 0x00	; 0
     afe:	30 e0       	ldi	r19, 0x00	; 0
     b00:	a9 01       	movw	r20, r18
     b02:	0e 94 ce 10 	call	0x219c	; 0x219c <__addsf3>
     b06:	6d 8f       	std	Y+29, r22	; 0x1d
     b08:	7e 8f       	std	Y+30, r23	; 0x1e
     b0a:	8f 8f       	std	Y+31, r24	; 0x1f
     b0c:	98 a3       	std	Y+32, r25	; 0x20
     b0e:	c5 01       	movw	r24, r10
     b10:	b4 01       	movw	r22, r8
     b12:	0e 94 27 14 	call	0x284e	; 0x284e <sin>
     b16:	9b 01       	movw	r18, r22
     b18:	ac 01       	movw	r20, r24
     b1a:	c7 01       	movw	r24, r14
     b1c:	b6 01       	movw	r22, r12
     b1e:	0e 94 a4 13 	call	0x2748	; 0x2748 <__mulsf3>
     b22:	20 e0       	ldi	r18, 0x00	; 0
     b24:	30 e0       	ldi	r19, 0x00	; 0
     b26:	a9 01       	movw	r20, r18
     b28:	0e 94 ce 10 	call	0x219c	; 0x219c <__addsf3>
     b2c:	69 a3       	std	Y+33, r22	; 0x21
     b2e:	7a a3       	std	Y+34, r23	; 0x22
     b30:	8b a3       	std	Y+35, r24	; 0x23
     b32:	9c a3       	std	Y+36, r25	; 0x24
     b34:	f8 01       	movw	r30, r16
     b36:	c4 80       	ldd	r12, Z+4	; 0x04
     b38:	d5 80       	ldd	r13, Z+5	; 0x05
     b3a:	e6 80       	ldd	r14, Z+6	; 0x06
     b3c:	f7 80       	ldd	r15, Z+7	; 0x07
     b3e:	c3 01       	movw	r24, r6
     b40:	b2 01       	movw	r22, r4
     b42:	0e 94 98 11 	call	0x2330	; 0x2330 <cos>
     b46:	4b 01       	movw	r8, r22
     b48:	5c 01       	movw	r10, r24
     b4a:	c3 01       	movw	r24, r6
     b4c:	b2 01       	movw	r22, r4
     b4e:	0e 94 27 14 	call	0x284e	; 0x284e <sin>
     b52:	2b 01       	movw	r4, r22
     b54:	3c 01       	movw	r6, r24
     b56:	a5 01       	movw	r20, r10
     b58:	94 01       	movw	r18, r8
     b5a:	c7 01       	movw	r24, r14
     b5c:	b6 01       	movw	r22, r12
     b5e:	0e 94 a4 13 	call	0x2748	; 0x2748 <__mulsf3>
     b62:	22 e5       	ldi	r18, 0x52	; 82
     b64:	38 eb       	ldi	r19, 0xB8	; 184
     b66:	46 eb       	ldi	r20, 0xB6	; 182
     b68:	51 e4       	ldi	r21, 0x41	; 65
     b6a:	0e 94 ce 10 	call	0x219c	; 0x219c <__addsf3>
     b6e:	2d 8d       	ldd	r18, Y+29	; 0x1d
     b70:	3e 8d       	ldd	r19, Y+30	; 0x1e
     b72:	4f 8d       	ldd	r20, Y+31	; 0x1f
     b74:	58 a1       	ldd	r21, Y+32	; 0x20
     b76:	0e 94 cd 10 	call	0x219a	; 0x219a <__subsf3>
     b7a:	69 8b       	std	Y+17, r22	; 0x11
     b7c:	7a 8b       	std	Y+18, r23	; 0x12
     b7e:	8b 8b       	std	Y+19, r24	; 0x13
     b80:	9c 8b       	std	Y+20, r25	; 0x14
     b82:	a3 01       	movw	r20, r6
     b84:	92 01       	movw	r18, r4
     b86:	c7 01       	movw	r24, r14
     b88:	b6 01       	movw	r22, r12
     b8a:	0e 94 a4 13 	call	0x2748	; 0x2748 <__mulsf3>
     b8e:	20 e0       	ldi	r18, 0x00	; 0
     b90:	30 e0       	ldi	r19, 0x00	; 0
     b92:	a9 01       	movw	r20, r18
     b94:	0e 94 ce 10 	call	0x219c	; 0x219c <__addsf3>
     b98:	29 a1       	ldd	r18, Y+33	; 0x21
     b9a:	3a a1       	ldd	r19, Y+34	; 0x22
     b9c:	4b a1       	ldd	r20, Y+35	; 0x23
     b9e:	5c a1       	ldd	r21, Y+36	; 0x24
     ba0:	0e 94 cd 10 	call	0x219a	; 0x219a <__subsf3>
     ba4:	6d 8b       	std	Y+21, r22	; 0x15
     ba6:	7e 8b       	std	Y+22, r23	; 0x16
     ba8:	8f 8b       	std	Y+23, r24	; 0x17
     baa:	98 8f       	std	Y+24, r25	; 0x18
     bac:	29 89       	ldd	r18, Y+17	; 0x11
     bae:	3a 89       	ldd	r19, Y+18	; 0x12
     bb0:	4b 89       	ldd	r20, Y+19	; 0x13
     bb2:	5c 89       	ldd	r21, Y+20	; 0x14
     bb4:	ca 01       	movw	r24, r20
     bb6:	b9 01       	movw	r22, r18
     bb8:	0e 94 a4 13 	call	0x2748	; 0x2748 <__mulsf3>
     bbc:	6b 01       	movw	r12, r22
     bbe:	7c 01       	movw	r14, r24
     bc0:	2d 89       	ldd	r18, Y+21	; 0x15
     bc2:	3e 89       	ldd	r19, Y+22	; 0x16
     bc4:	4f 89       	ldd	r20, Y+23	; 0x17
     bc6:	58 8d       	ldd	r21, Y+24	; 0x18
     bc8:	ca 01       	movw	r24, r20
     bca:	b9 01       	movw	r22, r18
     bcc:	0e 94 a4 13 	call	0x2748	; 0x2748 <__mulsf3>
     bd0:	9b 01       	movw	r18, r22
     bd2:	ac 01       	movw	r20, r24
     bd4:	c7 01       	movw	r24, r14
     bd6:	b6 01       	movw	r22, r12
     bd8:	0e 94 ce 10 	call	0x219c	; 0x219c <__addsf3>
     bdc:	0e 94 31 14 	call	0x2862	; 0x2862 <sqrt>
     be0:	4b 01       	movw	r8, r22
     be2:	5c 01       	movw	r10, r24
     be4:	d8 01       	movw	r26, r16
     be6:	18 96       	adiw	r26, 0x08	; 8
     be8:	cd 90       	ld	r12, X+
     bea:	dd 90       	ld	r13, X+
     bec:	ed 90       	ld	r14, X+
     bee:	fc 90       	ld	r15, X
     bf0:	1b 97       	sbiw	r26, 0x0b	; 11
     bf2:	1c 96       	adiw	r26, 0x0c	; 12
     bf4:	8d 91       	ld	r24, X+
     bf6:	9d 91       	ld	r25, X+
     bf8:	0d 90       	ld	r0, X+
     bfa:	bc 91       	ld	r27, X
     bfc:	a0 2d       	mov	r26, r0
     bfe:	89 8f       	std	Y+25, r24	; 0x19
     c00:	9a 8f       	std	Y+26, r25	; 0x1a
     c02:	ab 8f       	std	Y+27, r26	; 0x1b
     c04:	bc 8f       	std	Y+28, r27	; 0x1c
     c06:	a7 01       	movw	r20, r14
     c08:	96 01       	movw	r18, r12
     c0a:	c7 01       	movw	r24, r14
     c0c:	b6 01       	movw	r22, r12
     c0e:	0e 94 a4 13 	call	0x2748	; 0x2748 <__mulsf3>
     c12:	2b 01       	movw	r4, r22
     c14:	3c 01       	movw	r6, r24
     c16:	a5 01       	movw	r20, r10
     c18:	94 01       	movw	r18, r8
     c1a:	c5 01       	movw	r24, r10
     c1c:	b4 01       	movw	r22, r8
     c1e:	0e 94 a4 13 	call	0x2748	; 0x2748 <__mulsf3>
     c22:	9b 01       	movw	r18, r22
     c24:	ac 01       	movw	r20, r24
     c26:	c3 01       	movw	r24, r6
     c28:	b2 01       	movw	r22, r4
     c2a:	0e 94 ce 10 	call	0x219c	; 0x219c <__addsf3>
     c2e:	2b 01       	movw	r4, r22
     c30:	3c 01       	movw	r6, r24
     c32:	29 8d       	ldd	r18, Y+25	; 0x19
     c34:	3a 8d       	ldd	r19, Y+26	; 0x1a
     c36:	4b 8d       	ldd	r20, Y+27	; 0x1b
     c38:	5c 8d       	ldd	r21, Y+28	; 0x1c
     c3a:	ca 01       	movw	r24, r20
     c3c:	b9 01       	movw	r22, r18
     c3e:	0e 94 a4 13 	call	0x2748	; 0x2748 <__mulsf3>
     c42:	9b 01       	movw	r18, r22
     c44:	ac 01       	movw	r20, r24
     c46:	c3 01       	movw	r24, r6
     c48:	b2 01       	movw	r22, r4
     c4a:	0e 94 cd 10 	call	0x219a	; 0x219a <__subsf3>
     c4e:	2b 01       	movw	r4, r22
     c50:	3c 01       	movw	r6, r24
     c52:	a7 01       	movw	r20, r14
     c54:	96 01       	movw	r18, r12
     c56:	c7 01       	movw	r24, r14
     c58:	b6 01       	movw	r22, r12
     c5a:	0e 94 ce 10 	call	0x219c	; 0x219c <__addsf3>
     c5e:	a5 01       	movw	r20, r10
     c60:	94 01       	movw	r18, r8
     c62:	0e 94 a4 13 	call	0x2748	; 0x2748 <__mulsf3>
     c66:	9b 01       	movw	r18, r22
     c68:	ac 01       	movw	r20, r24
     c6a:	c3 01       	movw	r24, r6
     c6c:	b2 01       	movw	r22, r4
     c6e:	0e 94 9b 11 	call	0x2336	; 0x2336 <__divsf3>
     c72:	0e 94 bf 10 	call	0x217e	; 0x217e <acos>
     c76:	2b 01       	movw	r4, r22
     c78:	3c 01       	movw	r6, r24
     c7a:	a7 01       	movw	r20, r14
     c7c:	96 01       	movw	r18, r12
     c7e:	69 89       	ldd	r22, Y+17	; 0x11
     c80:	7a 89       	ldd	r23, Y+18	; 0x12
     c82:	8b 89       	ldd	r24, Y+19	; 0x13
     c84:	9c 89       	ldd	r25, Y+20	; 0x14
     c86:	0e 94 a4 13 	call	0x2748	; 0x2748 <__mulsf3>
     c8a:	a5 01       	movw	r20, r10
     c8c:	94 01       	movw	r18, r8
     c8e:	0e 94 9b 11 	call	0x2336	; 0x2336 <__divsf3>
     c92:	36 2e       	mov	r3, r22
     c94:	ab 01       	movw	r20, r22
     c96:	bc 01       	movw	r22, r24
     c98:	49 87       	std	Y+9, r20	; 0x09
     c9a:	5a 87       	std	Y+10, r21	; 0x0a
     c9c:	6b 87       	std	Y+11, r22	; 0x0b
     c9e:	7c 87       	std	Y+12, r23	; 0x0c
     ca0:	a7 01       	movw	r20, r14
     ca2:	96 01       	movw	r18, r12
     ca4:	6d 89       	ldd	r22, Y+21	; 0x15
     ca6:	7e 89       	ldd	r23, Y+22	; 0x16
     ca8:	8f 89       	ldd	r24, Y+23	; 0x17
     caa:	98 8d       	ldd	r25, Y+24	; 0x18
     cac:	0e 94 a4 13 	call	0x2748	; 0x2748 <__mulsf3>
     cb0:	a5 01       	movw	r20, r10
     cb2:	94 01       	movw	r18, r8
     cb4:	0e 94 9b 11 	call	0x2336	; 0x2336 <__divsf3>
     cb8:	e6 2f       	mov	r30, r22
     cba:	ab 01       	movw	r20, r22
     cbc:	bc 01       	movw	r22, r24
     cbe:	4d 87       	std	Y+13, r20	; 0x0d
     cc0:	5e 87       	std	Y+14, r21	; 0x0e
     cc2:	6f 87       	std	Y+15, r22	; 0x0f
     cc4:	78 8b       	std	Y+16, r23	; 0x10
     cc6:	83 01       	movw	r16, r6
     cc8:	72 01       	movw	r14, r4
     cca:	23 2d       	mov	r18, r3
     ccc:	3a 85       	ldd	r19, Y+10	; 0x0a
     cce:	4b 85       	ldd	r20, Y+11	; 0x0b
     cd0:	5c 85       	ldd	r21, Y+12	; 0x0c
     cd2:	6e 2f       	mov	r22, r30
     cd4:	7e 85       	ldd	r23, Y+14	; 0x0e
     cd6:	8f 85       	ldd	r24, Y+15	; 0x0f
     cd8:	98 89       	ldd	r25, Y+16	; 0x10
     cda:	24 dd       	rcall	.-1464   	; 0x724 <rotateVector>
     cdc:	29 83       	std	Y+1, r18	; 0x01
     cde:	3a 83       	std	Y+2, r19	; 0x02
     ce0:	4b 83       	std	Y+3, r20	; 0x03
     ce2:	5c 83       	std	Y+4, r21	; 0x04
     ce4:	6d 83       	std	Y+5, r22	; 0x05
     ce6:	7e 83       	std	Y+6, r23	; 0x06
     ce8:	8f 83       	std	Y+7, r24	; 0x07
     cea:	98 87       	std	Y+8, r25	; 0x08
     cec:	05 e9       	ldi	r16, 0x95	; 149
     cee:	11 e0       	ldi	r17, 0x01	; 1
     cf0:	2d 8d       	ldd	r18, Y+29	; 0x1d
     cf2:	3e 8d       	ldd	r19, Y+30	; 0x1e
     cf4:	4f 8d       	ldd	r20, Y+31	; 0x1f
     cf6:	58 a1       	ldd	r21, Y+32	; 0x20
     cf8:	69 81       	ldd	r22, Y+1	; 0x01
     cfa:	7a 81       	ldd	r23, Y+2	; 0x02
     cfc:	8b 81       	ldd	r24, Y+3	; 0x03
     cfe:	9c 81       	ldd	r25, Y+4	; 0x04
     d00:	0e 94 ce 10 	call	0x219c	; 0x219c <__addsf3>
     d04:	f8 01       	movw	r30, r16
     d06:	60 83       	st	Z, r22
     d08:	71 83       	std	Z+1, r23	; 0x01
     d0a:	82 83       	std	Z+2, r24	; 0x02
     d0c:	93 83       	std	Z+3, r25	; 0x03
     d0e:	29 a1       	ldd	r18, Y+33	; 0x21
     d10:	3a a1       	ldd	r19, Y+34	; 0x22
     d12:	4b a1       	ldd	r20, Y+35	; 0x23
     d14:	5c a1       	ldd	r21, Y+36	; 0x24
     d16:	6d 81       	ldd	r22, Y+5	; 0x05
     d18:	7e 81       	ldd	r23, Y+6	; 0x06
     d1a:	8f 81       	ldd	r24, Y+7	; 0x07
     d1c:	98 85       	ldd	r25, Y+8	; 0x08
     d1e:	0e 94 ce 10 	call	0x219c	; 0x219c <__addsf3>
     d22:	d8 01       	movw	r26, r16
     d24:	14 96       	adiw	r26, 0x04	; 4
     d26:	6d 93       	st	X+, r22
     d28:	7d 93       	st	X+, r23
     d2a:	8d 93       	st	X+, r24
     d2c:	9c 93       	st	X, r25
     d2e:	17 97       	sbiw	r26, 0x07	; 7
     d30:	a4 96       	adiw	r28, 0x24	; 36
     d32:	0f b6       	in	r0, 0x3f	; 63
     d34:	f8 94       	cli
     d36:	de bf       	out	0x3e, r29	; 62
     d38:	0f be       	out	0x3f, r0	; 63
     d3a:	cd bf       	out	0x3d, r28	; 61
     d3c:	df 91       	pop	r29
     d3e:	cf 91       	pop	r28
     d40:	1f 91       	pop	r17
     d42:	0f 91       	pop	r16
     d44:	ff 90       	pop	r15
     d46:	ef 90       	pop	r14
     d48:	df 90       	pop	r13
     d4a:	cf 90       	pop	r12
     d4c:	bf 90       	pop	r11
     d4e:	af 90       	pop	r10
     d50:	9f 90       	pop	r9
     d52:	8f 90       	pop	r8
     d54:	7f 90       	pop	r7
     d56:	6f 90       	pop	r6
     d58:	5f 90       	pop	r5
     d5a:	4f 90       	pop	r4
     d5c:	3f 90       	pop	r3
     d5e:	08 95       	ret

00000d60 <sensorKinematics>:
     d60:	3f 92       	push	r3
     d62:	4f 92       	push	r4
     d64:	5f 92       	push	r5
     d66:	6f 92       	push	r6
     d68:	7f 92       	push	r7
     d6a:	8f 92       	push	r8
     d6c:	9f 92       	push	r9
     d6e:	af 92       	push	r10
     d70:	bf 92       	push	r11
     d72:	cf 92       	push	r12
     d74:	df 92       	push	r13
     d76:	ef 92       	push	r14
     d78:	ff 92       	push	r15
     d7a:	0f 93       	push	r16
     d7c:	1f 93       	push	r17
     d7e:	cf 93       	push	r28
     d80:	df 93       	push	r29
     d82:	cd b7       	in	r28, 0x3d	; 61
     d84:	de b7       	in	r29, 0x3e	; 62
     d86:	a4 97       	sbiw	r28, 0x24	; 36
     d88:	0f b6       	in	r0, 0x3f	; 63
     d8a:	f8 94       	cli
     d8c:	de bf       	out	0x3e, r29	; 62
     d8e:	0f be       	out	0x3f, r0	; 63
     d90:	cd bf       	out	0x3d, r28	; 61
     d92:	f6 dd       	rcall	.-1044   	; 0x980 <getSensorData>
     d94:	00 e4       	ldi	r16, 0x40	; 64
     d96:	11 e0       	ldi	r17, 0x01	; 1
     d98:	20 e0       	ldi	r18, 0x00	; 0
     d9a:	30 e0       	ldi	r19, 0x00	; 0
     d9c:	40 e8       	ldi	r20, 0x80	; 128
     d9e:	5a e3       	ldi	r21, 0x3A	; 58
     da0:	d8 01       	movw	r26, r16
     da2:	6d 91       	ld	r22, X+
     da4:	7d 91       	ld	r23, X+
     da6:	8d 91       	ld	r24, X+
     da8:	9c 91       	ld	r25, X
     daa:	0e 94 a4 13 	call	0x2748	; 0x2748 <__mulsf3>
     dae:	25 ea       	ldi	r18, 0xA5	; 165
     db0:	3e e4       	ldi	r19, 0x4E	; 78
     db2:	48 eb       	ldi	r20, 0xB8	; 184
     db4:	50 e4       	ldi	r21, 0x40	; 64
     db6:	0e 94 a4 13 	call	0x2748	; 0x2748 <__mulsf3>
     dba:	20 e5       	ldi	r18, 0x50	; 80
     dbc:	3d e8       	ldi	r19, 0x8D	; 141
     dbe:	47 ea       	ldi	r20, 0xA7	; 167
     dc0:	5f e3       	ldi	r21, 0x3F	; 63
     dc2:	0e 94 cd 10 	call	0x219a	; 0x219a <__subsf3>
     dc6:	4b 01       	movw	r8, r22
     dc8:	5c 01       	movw	r10, r24
     dca:	20 e0       	ldi	r18, 0x00	; 0
     dcc:	30 e0       	ldi	r19, 0x00	; 0
     dce:	40 e8       	ldi	r20, 0x80	; 128
     dd0:	5a e3       	ldi	r21, 0x3A	; 58
     dd2:	f8 01       	movw	r30, r16
     dd4:	64 81       	ldd	r22, Z+4	; 0x04
     dd6:	75 81       	ldd	r23, Z+5	; 0x05
     dd8:	86 81       	ldd	r24, Z+6	; 0x06
     dda:	97 81       	ldd	r25, Z+7	; 0x07
     ddc:	0e 94 a4 13 	call	0x2748	; 0x2748 <__mulsf3>
     de0:	25 ea       	ldi	r18, 0xA5	; 165
     de2:	3e e4       	ldi	r19, 0x4E	; 78
     de4:	48 eb       	ldi	r20, 0xB8	; 184
     de6:	50 e4       	ldi	r21, 0x40	; 64
     de8:	0e 94 a4 13 	call	0x2748	; 0x2748 <__mulsf3>
     dec:	20 e5       	ldi	r18, 0x50	; 80
     dee:	3d e8       	ldi	r19, 0x8D	; 141
     df0:	47 ea       	ldi	r20, 0xA7	; 167
     df2:	5f e3       	ldi	r21, 0x3F	; 63
     df4:	0e 94 cd 10 	call	0x219a	; 0x219a <__subsf3>
     df8:	2b 01       	movw	r4, r22
     dfa:	3c 01       	movw	r6, r24
     dfc:	08 e4       	ldi	r16, 0x48	; 72
     dfe:	11 e0       	ldi	r17, 0x01	; 1
     e00:	d8 01       	movw	r26, r16
     e02:	cd 90       	ld	r12, X+
     e04:	dd 90       	ld	r13, X+
     e06:	ed 90       	ld	r14, X+
     e08:	fc 90       	ld	r15, X
     e0a:	c5 01       	movw	r24, r10
     e0c:	b4 01       	movw	r22, r8
     e0e:	0e 94 98 11 	call	0x2330	; 0x2330 <cos>
     e12:	9b 01       	movw	r18, r22
     e14:	ac 01       	movw	r20, r24
     e16:	c7 01       	movw	r24, r14
     e18:	b6 01       	movw	r22, r12
     e1a:	0e 94 a4 13 	call	0x2748	; 0x2748 <__mulsf3>
     e1e:	20 e0       	ldi	r18, 0x00	; 0
     e20:	30 e0       	ldi	r19, 0x00	; 0
     e22:	a9 01       	movw	r20, r18
     e24:	0e 94 ce 10 	call	0x219c	; 0x219c <__addsf3>
     e28:	6d 8f       	std	Y+29, r22	; 0x1d
     e2a:	7e 8f       	std	Y+30, r23	; 0x1e
     e2c:	8f 8f       	std	Y+31, r24	; 0x1f
     e2e:	98 a3       	std	Y+32, r25	; 0x20
     e30:	c5 01       	movw	r24, r10
     e32:	b4 01       	movw	r22, r8
     e34:	0e 94 27 14 	call	0x284e	; 0x284e <sin>
     e38:	9b 01       	movw	r18, r22
     e3a:	ac 01       	movw	r20, r24
     e3c:	c7 01       	movw	r24, r14
     e3e:	b6 01       	movw	r22, r12
     e40:	0e 94 a4 13 	call	0x2748	; 0x2748 <__mulsf3>
     e44:	20 e0       	ldi	r18, 0x00	; 0
     e46:	30 e0       	ldi	r19, 0x00	; 0
     e48:	a9 01       	movw	r20, r18
     e4a:	0e 94 ce 10 	call	0x219c	; 0x219c <__addsf3>
     e4e:	69 a3       	std	Y+33, r22	; 0x21
     e50:	7a a3       	std	Y+34, r23	; 0x22
     e52:	8b a3       	std	Y+35, r24	; 0x23
     e54:	9c a3       	std	Y+36, r25	; 0x24
     e56:	f8 01       	movw	r30, r16
     e58:	c4 80       	ldd	r12, Z+4	; 0x04
     e5a:	d5 80       	ldd	r13, Z+5	; 0x05
     e5c:	e6 80       	ldd	r14, Z+6	; 0x06
     e5e:	f7 80       	ldd	r15, Z+7	; 0x07
     e60:	c3 01       	movw	r24, r6
     e62:	b2 01       	movw	r22, r4
     e64:	0e 94 98 11 	call	0x2330	; 0x2330 <cos>
     e68:	4b 01       	movw	r8, r22
     e6a:	5c 01       	movw	r10, r24
     e6c:	c3 01       	movw	r24, r6
     e6e:	b2 01       	movw	r22, r4
     e70:	0e 94 27 14 	call	0x284e	; 0x284e <sin>
     e74:	2b 01       	movw	r4, r22
     e76:	3c 01       	movw	r6, r24
     e78:	a5 01       	movw	r20, r10
     e7a:	94 01       	movw	r18, r8
     e7c:	c7 01       	movw	r24, r14
     e7e:	b6 01       	movw	r22, r12
     e80:	0e 94 a4 13 	call	0x2748	; 0x2748 <__mulsf3>
     e84:	22 e5       	ldi	r18, 0x52	; 82
     e86:	38 eb       	ldi	r19, 0xB8	; 184
     e88:	46 eb       	ldi	r20, 0xB6	; 182
     e8a:	51 e4       	ldi	r21, 0x41	; 65
     e8c:	0e 94 ce 10 	call	0x219c	; 0x219c <__addsf3>
     e90:	2d 8d       	ldd	r18, Y+29	; 0x1d
     e92:	3e 8d       	ldd	r19, Y+30	; 0x1e
     e94:	4f 8d       	ldd	r20, Y+31	; 0x1f
     e96:	58 a1       	ldd	r21, Y+32	; 0x20
     e98:	0e 94 cd 10 	call	0x219a	; 0x219a <__subsf3>
     e9c:	69 8b       	std	Y+17, r22	; 0x11
     e9e:	7a 8b       	std	Y+18, r23	; 0x12
     ea0:	8b 8b       	std	Y+19, r24	; 0x13
     ea2:	9c 8b       	std	Y+20, r25	; 0x14
     ea4:	a3 01       	movw	r20, r6
     ea6:	92 01       	movw	r18, r4
     ea8:	c7 01       	movw	r24, r14
     eaa:	b6 01       	movw	r22, r12
     eac:	0e 94 a4 13 	call	0x2748	; 0x2748 <__mulsf3>
     eb0:	20 e0       	ldi	r18, 0x00	; 0
     eb2:	30 e0       	ldi	r19, 0x00	; 0
     eb4:	a9 01       	movw	r20, r18
     eb6:	0e 94 ce 10 	call	0x219c	; 0x219c <__addsf3>
     eba:	29 a1       	ldd	r18, Y+33	; 0x21
     ebc:	3a a1       	ldd	r19, Y+34	; 0x22
     ebe:	4b a1       	ldd	r20, Y+35	; 0x23
     ec0:	5c a1       	ldd	r21, Y+36	; 0x24
     ec2:	0e 94 cd 10 	call	0x219a	; 0x219a <__subsf3>
     ec6:	6d 8b       	std	Y+21, r22	; 0x15
     ec8:	7e 8b       	std	Y+22, r23	; 0x16
     eca:	8f 8b       	std	Y+23, r24	; 0x17
     ecc:	98 8f       	std	Y+24, r25	; 0x18
     ece:	29 89       	ldd	r18, Y+17	; 0x11
     ed0:	3a 89       	ldd	r19, Y+18	; 0x12
     ed2:	4b 89       	ldd	r20, Y+19	; 0x13
     ed4:	5c 89       	ldd	r21, Y+20	; 0x14
     ed6:	ca 01       	movw	r24, r20
     ed8:	b9 01       	movw	r22, r18
     eda:	0e 94 a4 13 	call	0x2748	; 0x2748 <__mulsf3>
     ede:	6b 01       	movw	r12, r22
     ee0:	7c 01       	movw	r14, r24
     ee2:	2d 89       	ldd	r18, Y+21	; 0x15
     ee4:	3e 89       	ldd	r19, Y+22	; 0x16
     ee6:	4f 89       	ldd	r20, Y+23	; 0x17
     ee8:	58 8d       	ldd	r21, Y+24	; 0x18
     eea:	ca 01       	movw	r24, r20
     eec:	b9 01       	movw	r22, r18
     eee:	0e 94 a4 13 	call	0x2748	; 0x2748 <__mulsf3>
     ef2:	9b 01       	movw	r18, r22
     ef4:	ac 01       	movw	r20, r24
     ef6:	c7 01       	movw	r24, r14
     ef8:	b6 01       	movw	r22, r12
     efa:	0e 94 ce 10 	call	0x219c	; 0x219c <__addsf3>
     efe:	0e 94 31 14 	call	0x2862	; 0x2862 <sqrt>
     f02:	4b 01       	movw	r8, r22
     f04:	5c 01       	movw	r10, r24
     f06:	d8 01       	movw	r26, r16
     f08:	18 96       	adiw	r26, 0x08	; 8
     f0a:	cd 90       	ld	r12, X+
     f0c:	dd 90       	ld	r13, X+
     f0e:	ed 90       	ld	r14, X+
     f10:	fc 90       	ld	r15, X
     f12:	1b 97       	sbiw	r26, 0x0b	; 11
     f14:	1c 96       	adiw	r26, 0x0c	; 12
     f16:	8d 91       	ld	r24, X+
     f18:	9d 91       	ld	r25, X+
     f1a:	0d 90       	ld	r0, X+
     f1c:	bc 91       	ld	r27, X
     f1e:	a0 2d       	mov	r26, r0
     f20:	89 8f       	std	Y+25, r24	; 0x19
     f22:	9a 8f       	std	Y+26, r25	; 0x1a
     f24:	ab 8f       	std	Y+27, r26	; 0x1b
     f26:	bc 8f       	std	Y+28, r27	; 0x1c
     f28:	a7 01       	movw	r20, r14
     f2a:	96 01       	movw	r18, r12
     f2c:	c7 01       	movw	r24, r14
     f2e:	b6 01       	movw	r22, r12
     f30:	0e 94 a4 13 	call	0x2748	; 0x2748 <__mulsf3>
     f34:	2b 01       	movw	r4, r22
     f36:	3c 01       	movw	r6, r24
     f38:	a5 01       	movw	r20, r10
     f3a:	94 01       	movw	r18, r8
     f3c:	c5 01       	movw	r24, r10
     f3e:	b4 01       	movw	r22, r8
     f40:	0e 94 a4 13 	call	0x2748	; 0x2748 <__mulsf3>
     f44:	9b 01       	movw	r18, r22
     f46:	ac 01       	movw	r20, r24
     f48:	c3 01       	movw	r24, r6
     f4a:	b2 01       	movw	r22, r4
     f4c:	0e 94 ce 10 	call	0x219c	; 0x219c <__addsf3>
     f50:	2b 01       	movw	r4, r22
     f52:	3c 01       	movw	r6, r24
     f54:	29 8d       	ldd	r18, Y+25	; 0x19
     f56:	3a 8d       	ldd	r19, Y+26	; 0x1a
     f58:	4b 8d       	ldd	r20, Y+27	; 0x1b
     f5a:	5c 8d       	ldd	r21, Y+28	; 0x1c
     f5c:	ca 01       	movw	r24, r20
     f5e:	b9 01       	movw	r22, r18
     f60:	0e 94 a4 13 	call	0x2748	; 0x2748 <__mulsf3>
     f64:	9b 01       	movw	r18, r22
     f66:	ac 01       	movw	r20, r24
     f68:	c3 01       	movw	r24, r6
     f6a:	b2 01       	movw	r22, r4
     f6c:	0e 94 cd 10 	call	0x219a	; 0x219a <__subsf3>
     f70:	2b 01       	movw	r4, r22
     f72:	3c 01       	movw	r6, r24
     f74:	a7 01       	movw	r20, r14
     f76:	96 01       	movw	r18, r12
     f78:	c7 01       	movw	r24, r14
     f7a:	b6 01       	movw	r22, r12
     f7c:	0e 94 ce 10 	call	0x219c	; 0x219c <__addsf3>
     f80:	a5 01       	movw	r20, r10
     f82:	94 01       	movw	r18, r8
     f84:	0e 94 a4 13 	call	0x2748	; 0x2748 <__mulsf3>
     f88:	9b 01       	movw	r18, r22
     f8a:	ac 01       	movw	r20, r24
     f8c:	c3 01       	movw	r24, r6
     f8e:	b2 01       	movw	r22, r4
     f90:	0e 94 9b 11 	call	0x2336	; 0x2336 <__divsf3>
     f94:	0e 94 bf 10 	call	0x217e	; 0x217e <acos>
     f98:	2b 01       	movw	r4, r22
     f9a:	3c 01       	movw	r6, r24
     f9c:	a7 01       	movw	r20, r14
     f9e:	96 01       	movw	r18, r12
     fa0:	69 89       	ldd	r22, Y+17	; 0x11
     fa2:	7a 89       	ldd	r23, Y+18	; 0x12
     fa4:	8b 89       	ldd	r24, Y+19	; 0x13
     fa6:	9c 89       	ldd	r25, Y+20	; 0x14
     fa8:	0e 94 a4 13 	call	0x2748	; 0x2748 <__mulsf3>
     fac:	a5 01       	movw	r20, r10
     fae:	94 01       	movw	r18, r8
     fb0:	0e 94 9b 11 	call	0x2336	; 0x2336 <__divsf3>
     fb4:	36 2e       	mov	r3, r22
     fb6:	ab 01       	movw	r20, r22
     fb8:	bc 01       	movw	r22, r24
     fba:	49 87       	std	Y+9, r20	; 0x09
     fbc:	5a 87       	std	Y+10, r21	; 0x0a
     fbe:	6b 87       	std	Y+11, r22	; 0x0b
     fc0:	7c 87       	std	Y+12, r23	; 0x0c
     fc2:	a7 01       	movw	r20, r14
     fc4:	96 01       	movw	r18, r12
     fc6:	6d 89       	ldd	r22, Y+21	; 0x15
     fc8:	7e 89       	ldd	r23, Y+22	; 0x16
     fca:	8f 89       	ldd	r24, Y+23	; 0x17
     fcc:	98 8d       	ldd	r25, Y+24	; 0x18
     fce:	0e 94 a4 13 	call	0x2748	; 0x2748 <__mulsf3>
     fd2:	a5 01       	movw	r20, r10
     fd4:	94 01       	movw	r18, r8
     fd6:	0e 94 9b 11 	call	0x2336	; 0x2336 <__divsf3>
     fda:	e6 2f       	mov	r30, r22
     fdc:	ab 01       	movw	r20, r22
     fde:	bc 01       	movw	r22, r24
     fe0:	4d 87       	std	Y+13, r20	; 0x0d
     fe2:	5e 87       	std	Y+14, r21	; 0x0e
     fe4:	6f 87       	std	Y+15, r22	; 0x0f
     fe6:	78 8b       	std	Y+16, r23	; 0x10
     fe8:	83 01       	movw	r16, r6
     fea:	72 01       	movw	r14, r4
     fec:	23 2d       	mov	r18, r3
     fee:	3a 85       	ldd	r19, Y+10	; 0x0a
     ff0:	4b 85       	ldd	r20, Y+11	; 0x0b
     ff2:	5c 85       	ldd	r21, Y+12	; 0x0c
     ff4:	6e 2f       	mov	r22, r30
     ff6:	7e 85       	ldd	r23, Y+14	; 0x0e
     ff8:	8f 85       	ldd	r24, Y+15	; 0x0f
     ffa:	98 89       	ldd	r25, Y+16	; 0x10
     ffc:	93 db       	rcall	.-2266   	; 0x724 <rotateVector>
     ffe:	29 83       	std	Y+1, r18	; 0x01
    1000:	3a 83       	std	Y+2, r19	; 0x02
    1002:	4b 83       	std	Y+3, r20	; 0x03
    1004:	5c 83       	std	Y+4, r21	; 0x04
    1006:	6d 83       	std	Y+5, r22	; 0x05
    1008:	7e 83       	std	Y+6, r23	; 0x06
    100a:	8f 83       	std	Y+7, r24	; 0x07
    100c:	98 87       	std	Y+8, r25	; 0x08
    100e:	2d 81       	ldd	r18, Y+5	; 0x05
    1010:	3e 81       	ldd	r19, Y+6	; 0x06
    1012:	4f 81       	ldd	r20, Y+7	; 0x07
    1014:	58 85       	ldd	r21, Y+8	; 0x08
    1016:	69 a1       	ldd	r22, Y+33	; 0x21
    1018:	7a a1       	ldd	r23, Y+34	; 0x22
    101a:	8b a1       	ldd	r24, Y+35	; 0x23
    101c:	9c a1       	ldd	r25, Y+36	; 0x24
    101e:	0e 94 ce 10 	call	0x219c	; 0x219c <__addsf3>
    1022:	4b 01       	movw	r8, r22
    1024:	5c 01       	movw	r10, r24
    1026:	0d e9       	ldi	r16, 0x9D	; 157
    1028:	11 e0       	ldi	r17, 0x01	; 1
    102a:	29 81       	ldd	r18, Y+1	; 0x01
    102c:	3a 81       	ldd	r19, Y+2	; 0x02
    102e:	4b 81       	ldd	r20, Y+3	; 0x03
    1030:	5c 81       	ldd	r21, Y+4	; 0x04
    1032:	6d 8d       	ldd	r22, Y+29	; 0x1d
    1034:	7e 8d       	ldd	r23, Y+30	; 0x1e
    1036:	8f 8d       	ldd	r24, Y+31	; 0x1f
    1038:	98 a1       	ldd	r25, Y+32	; 0x20
    103a:	0e 94 ce 10 	call	0x219c	; 0x219c <__addsf3>
    103e:	25 e9       	ldi	r18, 0x95	; 149
    1040:	e2 2e       	mov	r14, r18
    1042:	21 e0       	ldi	r18, 0x01	; 1
    1044:	f2 2e       	mov	r15, r18
    1046:	f7 01       	movw	r30, r14
    1048:	20 81       	ld	r18, Z
    104a:	31 81       	ldd	r19, Z+1	; 0x01
    104c:	42 81       	ldd	r20, Z+2	; 0x02
    104e:	53 81       	ldd	r21, Z+3	; 0x03
    1050:	0e 94 cd 10 	call	0x219a	; 0x219a <__subsf3>
    1054:	dc 01       	movw	r26, r24
    1056:	cb 01       	movw	r24, r22
    1058:	b0 58       	subi	r27, 0x80	; 128
    105a:	f8 01       	movw	r30, r16
    105c:	80 83       	st	Z, r24
    105e:	91 83       	std	Z+1, r25	; 0x01
    1060:	a2 83       	std	Z+2, r26	; 0x02
    1062:	b3 83       	std	Z+3, r27	; 0x03
    1064:	d7 01       	movw	r26, r14
    1066:	14 96       	adiw	r26, 0x04	; 4
    1068:	2d 91       	ld	r18, X+
    106a:	3d 91       	ld	r19, X+
    106c:	4d 91       	ld	r20, X+
    106e:	5c 91       	ld	r21, X
    1070:	17 97       	sbiw	r26, 0x07	; 7
    1072:	c5 01       	movw	r24, r10
    1074:	b4 01       	movw	r22, r8
    1076:	0e 94 cd 10 	call	0x219a	; 0x219a <__subsf3>
    107a:	f8 01       	movw	r30, r16
    107c:	64 83       	std	Z+4, r22	; 0x04
    107e:	75 83       	std	Z+5, r23	; 0x05
    1080:	86 83       	std	Z+6, r24	; 0x06
    1082:	97 83       	std	Z+7, r25	; 0x07
    1084:	a4 96       	adiw	r28, 0x24	; 36
    1086:	0f b6       	in	r0, 0x3f	; 63
    1088:	f8 94       	cli
    108a:	de bf       	out	0x3e, r29	; 62
    108c:	0f be       	out	0x3f, r0	; 63
    108e:	cd bf       	out	0x3d, r28	; 61
    1090:	df 91       	pop	r29
    1092:	cf 91       	pop	r28
    1094:	1f 91       	pop	r17
    1096:	0f 91       	pop	r16
    1098:	ff 90       	pop	r15
    109a:	ef 90       	pop	r14
    109c:	df 90       	pop	r13
    109e:	cf 90       	pop	r12
    10a0:	bf 90       	pop	r11
    10a2:	af 90       	pop	r10
    10a4:	9f 90       	pop	r9
    10a6:	8f 90       	pop	r8
    10a8:	7f 90       	pop	r7
    10aa:	6f 90       	pop	r6
    10ac:	5f 90       	pop	r5
    10ae:	4f 90       	pop	r4
    10b0:	3f 90       	pop	r3
    10b2:	08 95       	ret

000010b4 <__vector_28>:
    10b4:	1f 92       	push	r1
    10b6:	0f 92       	push	r0
    10b8:	0f b6       	in	r0, 0x3f	; 63
    10ba:	0f 92       	push	r0
    10bc:	11 24       	eor	r1, r1
    10be:	0b b6       	in	r0, 0x3b	; 59
    10c0:	0f 92       	push	r0
    10c2:	2f 93       	push	r18
    10c4:	3f 93       	push	r19
    10c6:	4f 93       	push	r20
    10c8:	5f 93       	push	r21
    10ca:	6f 93       	push	r22
    10cc:	7f 93       	push	r23
    10ce:	8f 93       	push	r24
    10d0:	9f 93       	push	r25
    10d2:	af 93       	push	r26
    10d4:	bf 93       	push	r27
    10d6:	ef 93       	push	r30
    10d8:	ff 93       	push	r31
    10da:	80 91 c8 00 	lds	r24, 0x00C8	; 0x8000c8 <__TEXT_REGION_LENGTH__+0x7e00c8>
    10de:	87 ff       	sbrs	r24, 7
    10e0:	fc cf       	rjmp	.-8      	; 0x10da <__vector_28+0x26>
    10e2:	80 91 ce 00 	lds	r24, 0x00CE	; 0x8000ce <__TEXT_REGION_LENGTH__+0x7e00ce>
    10e6:	85 35       	cpi	r24, 0x55	; 85
    10e8:	a1 f0       	breq	.+40     	; 0x1112 <__vector_28+0x5e>
    10ea:	47 9a       	sbi	0x08, 7	; 8
    10ec:	ff 91       	pop	r31
    10ee:	ef 91       	pop	r30
    10f0:	bf 91       	pop	r27
    10f2:	af 91       	pop	r26
    10f4:	9f 91       	pop	r25
    10f6:	8f 91       	pop	r24
    10f8:	7f 91       	pop	r23
    10fa:	6f 91       	pop	r22
    10fc:	5f 91       	pop	r21
    10fe:	4f 91       	pop	r20
    1100:	3f 91       	pop	r19
    1102:	2f 91       	pop	r18
    1104:	0f 90       	pop	r0
    1106:	0b be       	out	0x3b, r0	; 59
    1108:	0f 90       	pop	r0
    110a:	0f be       	out	0x3f, r0	; 63
    110c:	0f 90       	pop	r0
    110e:	1f 90       	pop	r1
    1110:	18 95       	reti
    1112:	80 91 c8 00 	lds	r24, 0x00C8	; 0x8000c8 <__TEXT_REGION_LENGTH__+0x7e00c8>
    1116:	87 ff       	sbrs	r24, 7
    1118:	fc cf       	rjmp	.-8      	; 0x1112 <__vector_28+0x5e>
    111a:	80 91 ce 00 	lds	r24, 0x00CE	; 0x8000ce <__TEXT_REGION_LENGTH__+0x7e00ce>
    111e:	98 2f       	mov	r25, r24
    1120:	9f 70       	andi	r25, 0x0F	; 15
    1122:	95 30       	cpi	r25, 0x05	; 5
    1124:	11 f0       	breq	.+4      	; 0x112a <__vector_28+0x76>
    1126:	91 11       	cpse	r25, r1
    1128:	e0 cf       	rjmp	.-64     	; 0x10ea <__vector_28+0x36>
    112a:	47 98       	cbi	0x08, 7	; 8
    112c:	80 7f       	andi	r24, 0xF0	; 240
    112e:	80 35       	cpi	r24, 0x50	; 80
    1130:	09 f4       	brne	.+2      	; 0x1134 <__vector_28+0x80>
    1132:	cd c0       	rjmp	.+410    	; 0x12ce <__vector_28+0x21a>
    1134:	10 f1       	brcs	.+68     	; 0x117a <__vector_28+0xc6>
    1136:	80 3b       	cpi	r24, 0xB0	; 176
    1138:	09 f4       	brne	.+2      	; 0x113c <__vector_28+0x88>
    113a:	0e c1       	rjmp	.+540    	; 0x1358 <__vector_28+0x2a4>
    113c:	b8 f5       	brcc	.+110    	; 0x11ac <__vector_28+0xf8>
    113e:	80 37       	cpi	r24, 0x70	; 112
    1140:	09 f4       	brne	.+2      	; 0x1144 <__vector_28+0x90>
    1142:	a2 c0       	rjmp	.+324    	; 0x1288 <__vector_28+0x1d4>
    1144:	80 38       	cpi	r24, 0x80	; 128
    1146:	89 f6       	brne	.-94     	; 0x10ea <__vector_28+0x36>
    1148:	e1 e1       	ldi	r30, 0x11	; 17
    114a:	f2 e0       	ldi	r31, 0x02	; 2
    114c:	47 e1       	ldi	r20, 0x17	; 23
    114e:	52 e0       	ldi	r21, 0x02	; 2
    1150:	80 91 c8 00 	lds	r24, 0x00C8	; 0x8000c8 <__TEXT_REGION_LENGTH__+0x7e00c8>
    1154:	87 ff       	sbrs	r24, 7
    1156:	fc cf       	rjmp	.-8      	; 0x1150 <__vector_28+0x9c>
    1158:	90 91 ce 00 	lds	r25, 0x00CE	; 0x8000ce <__TEXT_REGION_LENGTH__+0x7e00ce>
    115c:	80 91 c8 00 	lds	r24, 0x00C8	; 0x8000c8 <__TEXT_REGION_LENGTH__+0x7e00c8>
    1160:	87 ff       	sbrs	r24, 7
    1162:	fc cf       	rjmp	.-8      	; 0x115c <__vector_28+0xa8>
    1164:	20 91 ce 00 	lds	r18, 0x00CE	; 0x8000ce <__TEXT_REGION_LENGTH__+0x7e00ce>
    1168:	89 2f       	mov	r24, r25
    116a:	90 e0       	ldi	r25, 0x00	; 0
    116c:	92 2b       	or	r25, r18
    116e:	81 93       	st	Z+, r24
    1170:	91 93       	st	Z+, r25
    1172:	4e 17       	cp	r20, r30
    1174:	5f 07       	cpc	r21, r31
    1176:	61 f7       	brne	.-40     	; 0x1150 <__vector_28+0x9c>
    1178:	b8 cf       	rjmp	.-144    	; 0x10ea <__vector_28+0x36>
    117a:	80 31       	cpi	r24, 0x10	; 16
    117c:	09 f4       	brne	.+2      	; 0x1180 <__vector_28+0xcc>
    117e:	de c0       	rjmp	.+444    	; 0x133c <__vector_28+0x288>
    1180:	08 f4       	brcc	.+2      	; 0x1184 <__vector_28+0xd0>
    1182:	94 c0       	rjmp	.+296    	; 0x12ac <__vector_28+0x1f8>
    1184:	80 32       	cpi	r24, 0x20	; 32
    1186:	09 f4       	brne	.+2      	; 0x118a <__vector_28+0xd6>
    1188:	83 c0       	rjmp	.+262    	; 0x1290 <__vector_28+0x1dc>
    118a:	80 33       	cpi	r24, 0x30	; 48
    118c:	09 f0       	breq	.+2      	; 0x1190 <__vector_28+0xdc>
    118e:	ad cf       	rjmp	.-166    	; 0x10ea <__vector_28+0x36>
    1190:	e9 ec       	ldi	r30, 0xC9	; 201
    1192:	f1 e0       	ldi	r31, 0x01	; 1
    1194:	91 91       	ld	r25, Z+
    1196:	80 91 c8 00 	lds	r24, 0x00C8	; 0x8000c8 <__TEXT_REGION_LENGTH__+0x7e00c8>
    119a:	85 ff       	sbrs	r24, 5
    119c:	fc cf       	rjmp	.-8      	; 0x1196 <__vector_28+0xe2>
    119e:	90 93 ce 00 	sts	0x00CE, r25	; 0x8000ce <__TEXT_REGION_LENGTH__+0x7e00ce>
    11a2:	81 e0       	ldi	r24, 0x01	; 1
    11a4:	ef 3c       	cpi	r30, 0xCF	; 207
    11a6:	f8 07       	cpc	r31, r24
    11a8:	a9 f7       	brne	.-22     	; 0x1194 <__vector_28+0xe0>
    11aa:	9f cf       	rjmp	.-194    	; 0x10ea <__vector_28+0x36>
    11ac:	80 3c       	cpi	r24, 0xC0	; 192
    11ae:	91 f0       	breq	.+36     	; 0x11d4 <__vector_28+0x120>
    11b0:	80 3d       	cpi	r24, 0xD0	; 208
    11b2:	09 f0       	breq	.+2      	; 0x11b6 <__vector_28+0x102>
    11b4:	9a cf       	rjmp	.-204    	; 0x10ea <__vector_28+0x36>
    11b6:	81 e0       	ldi	r24, 0x01	; 1
    11b8:	90 e0       	ldi	r25, 0x00	; 0
    11ba:	20 91 92 01 	lds	r18, 0x0192	; 0x800192 <mode_switch>
    11be:	30 91 93 01 	lds	r19, 0x0193	; 0x800193 <mode_switch+0x1>
    11c2:	23 2b       	or	r18, r19
    11c4:	11 f0       	breq	.+4      	; 0x11ca <__vector_28+0x116>
    11c6:	80 e0       	ldi	r24, 0x00	; 0
    11c8:	90 e0       	ldi	r25, 0x00	; 0
    11ca:	90 93 93 01 	sts	0x0193, r25	; 0x800193 <mode_switch+0x1>
    11ce:	80 93 92 01 	sts	0x0192, r24	; 0x800192 <mode_switch>
    11d2:	8b cf       	rjmp	.-234    	; 0x10ea <__vector_28+0x36>
    11d4:	80 91 c8 00 	lds	r24, 0x00C8	; 0x8000c8 <__TEXT_REGION_LENGTH__+0x7e00c8>
    11d8:	87 ff       	sbrs	r24, 7
    11da:	fc cf       	rjmp	.-8      	; 0x11d4 <__vector_28+0x120>
    11dc:	80 91 ce 00 	lds	r24, 0x00CE	; 0x8000ce <__TEXT_REGION_LENGTH__+0x7e00ce>
    11e0:	90 e0       	ldi	r25, 0x00	; 0
    11e2:	90 93 fa 01 	sts	0x01FA, r25	; 0x8001fa <thisVoltage+0x1>
    11e6:	80 93 f9 01 	sts	0x01F9, r24	; 0x8001f9 <thisVoltage>
    11ea:	80 91 c8 00 	lds	r24, 0x00C8	; 0x8000c8 <__TEXT_REGION_LENGTH__+0x7e00c8>
    11ee:	87 ff       	sbrs	r24, 7
    11f0:	fc cf       	rjmp	.-8      	; 0x11ea <__vector_28+0x136>
    11f2:	80 91 ce 00 	lds	r24, 0x00CE	; 0x8000ce <__TEXT_REGION_LENGTH__+0x7e00ce>
    11f6:	90 e0       	ldi	r25, 0x00	; 0
    11f8:	90 93 fc 01 	sts	0x01FC, r25	; 0x8001fc <thisVoltage+0x3>
    11fc:	80 93 fb 01 	sts	0x01FB, r24	; 0x8001fb <thisVoltage+0x2>
    1200:	80 91 c8 00 	lds	r24, 0x00C8	; 0x8000c8 <__TEXT_REGION_LENGTH__+0x7e00c8>
    1204:	87 ff       	sbrs	r24, 7
    1206:	fc cf       	rjmp	.-8      	; 0x1200 <__vector_28+0x14c>
    1208:	80 91 ce 00 	lds	r24, 0x00CE	; 0x8000ce <__TEXT_REGION_LENGTH__+0x7e00ce>
    120c:	90 e0       	ldi	r25, 0x00	; 0
    120e:	90 93 fe 01 	sts	0x01FE, r25	; 0x8001fe <thisVoltage+0x5>
    1212:	80 93 fd 01 	sts	0x01FD, r24	; 0x8001fd <thisVoltage+0x4>
    1216:	80 91 c8 00 	lds	r24, 0x00C8	; 0x8000c8 <__TEXT_REGION_LENGTH__+0x7e00c8>
    121a:	87 ff       	sbrs	r24, 7
    121c:	fc cf       	rjmp	.-8      	; 0x1216 <__vector_28+0x162>
    121e:	80 91 ce 00 	lds	r24, 0x00CE	; 0x8000ce <__TEXT_REGION_LENGTH__+0x7e00ce>
    1222:	90 e0       	ldi	r25, 0x00	; 0
    1224:	90 93 00 02 	sts	0x0200, r25	; 0x800200 <thisVoltage+0x7>
    1228:	80 93 ff 01 	sts	0x01FF, r24	; 0x8001ff <thisVoltage+0x6>
    122c:	80 91 c8 00 	lds	r24, 0x00C8	; 0x8000c8 <__TEXT_REGION_LENGTH__+0x7e00c8>
    1230:	87 ff       	sbrs	r24, 7
    1232:	fc cf       	rjmp	.-8      	; 0x122c <__vector_28+0x178>
    1234:	80 91 ce 00 	lds	r24, 0x00CE	; 0x8000ce <__TEXT_REGION_LENGTH__+0x7e00ce>
    1238:	90 e0       	ldi	r25, 0x00	; 0
    123a:	90 93 02 02 	sts	0x0202, r25	; 0x800202 <thisVoltage+0x9>
    123e:	80 93 01 02 	sts	0x0201, r24	; 0x800201 <thisVoltage+0x8>
    1242:	80 91 c8 00 	lds	r24, 0x00C8	; 0x8000c8 <__TEXT_REGION_LENGTH__+0x7e00c8>
    1246:	87 ff       	sbrs	r24, 7
    1248:	fc cf       	rjmp	.-8      	; 0x1242 <__vector_28+0x18e>
    124a:	80 91 ce 00 	lds	r24, 0x00CE	; 0x8000ce <__TEXT_REGION_LENGTH__+0x7e00ce>
    124e:	90 e0       	ldi	r25, 0x00	; 0
    1250:	90 93 04 02 	sts	0x0204, r25	; 0x800204 <thisVoltage+0xb>
    1254:	80 93 03 02 	sts	0x0203, r24	; 0x800203 <thisVoltage+0xa>
    1258:	a7 d8       	rcall	.-3762   	; 0x3a8 <applyPulse>
    125a:	80 91 05 02 	lds	r24, 0x0205	; 0x800205 <tempVoltage>
    125e:	80 93 88 00 	sts	0x0088, r24	; 0x800088 <__TEXT_REGION_LENGTH__+0x7e0088>
    1262:	80 91 07 02 	lds	r24, 0x0207	; 0x800207 <tempVoltage+0x2>
    1266:	80 93 8a 00 	sts	0x008A, r24	; 0x80008a <__TEXT_REGION_LENGTH__+0x7e008a>
    126a:	80 91 09 02 	lds	r24, 0x0209	; 0x800209 <tempVoltage+0x4>
    126e:	87 bd       	out	0x27, r24	; 39
    1270:	80 91 0b 02 	lds	r24, 0x020B	; 0x80020b <tempVoltage+0x6>
    1274:	88 bd       	out	0x28, r24	; 40
    1276:	80 91 0d 02 	lds	r24, 0x020D	; 0x80020d <tempVoltage+0x8>
    127a:	80 93 b3 00 	sts	0x00B3, r24	; 0x8000b3 <__TEXT_REGION_LENGTH__+0x7e00b3>
    127e:	80 91 0f 02 	lds	r24, 0x020F	; 0x80020f <tempVoltage+0xa>
    1282:	80 93 b4 00 	sts	0x00B4, r24	; 0x8000b4 <__TEXT_REGION_LENGTH__+0x7e00b4>
    1286:	31 cf       	rjmp	.-414    	; 0x10ea <__vector_28+0x36>
    1288:	81 e0       	ldi	r24, 0x01	; 1
    128a:	80 93 94 01 	sts	0x0194, r24	; 0x800194 <start>
    128e:	2d cf       	rjmp	.-422    	; 0x10ea <__vector_28+0x36>
    1290:	e3 ec       	ldi	r30, 0xC3	; 195
    1292:	f1 e0       	ldi	r31, 0x01	; 1
    1294:	91 91       	ld	r25, Z+
    1296:	80 91 c8 00 	lds	r24, 0x00C8	; 0x8000c8 <__TEXT_REGION_LENGTH__+0x7e00c8>
    129a:	85 ff       	sbrs	r24, 5
    129c:	fc cf       	rjmp	.-8      	; 0x1296 <__vector_28+0x1e2>
    129e:	90 93 ce 00 	sts	0x00CE, r25	; 0x8000ce <__TEXT_REGION_LENGTH__+0x7e00ce>
    12a2:	81 e0       	ldi	r24, 0x01	; 1
    12a4:	e9 3c       	cpi	r30, 0xC9	; 201
    12a6:	f8 07       	cpc	r31, r24
    12a8:	a9 f7       	brne	.-22     	; 0x1294 <__vector_28+0x1e0>
    12aa:	1f cf       	rjmp	.-450    	; 0x10ea <__vector_28+0x36>
    12ac:	81 11       	cpse	r24, r1
    12ae:	1d cf       	rjmp	.-454    	; 0x10ea <__vector_28+0x36>
    12b0:	e1 e1       	ldi	r30, 0x11	; 17
    12b2:	f2 e0       	ldi	r31, 0x02	; 2
    12b4:	27 e1       	ldi	r18, 0x17	; 23
    12b6:	32 e0       	ldi	r19, 0x02	; 2
    12b8:	91 91       	ld	r25, Z+
    12ba:	80 91 c8 00 	lds	r24, 0x00C8	; 0x8000c8 <__TEXT_REGION_LENGTH__+0x7e00c8>
    12be:	85 ff       	sbrs	r24, 5
    12c0:	fc cf       	rjmp	.-8      	; 0x12ba <__vector_28+0x206>
    12c2:	90 93 ce 00 	sts	0x00CE, r25	; 0x8000ce <__TEXT_REGION_LENGTH__+0x7e00ce>
    12c6:	2e 17       	cp	r18, r30
    12c8:	3f 07       	cpc	r19, r31
    12ca:	b1 f7       	brne	.-20     	; 0x12b8 <__vector_28+0x204>
    12cc:	0e cf       	rjmp	.-484    	; 0x10ea <__vector_28+0x36>
    12ce:	20 e0       	ldi	r18, 0x00	; 0
    12d0:	30 e0       	ldi	r19, 0x00	; 0
    12d2:	48 ec       	ldi	r20, 0xC8	; 200
    12d4:	52 e4       	ldi	r21, 0x42	; 66
    12d6:	60 91 9d 01 	lds	r22, 0x019D	; 0x80019d <EE>
    12da:	70 91 9e 01 	lds	r23, 0x019E	; 0x80019e <EE+0x1>
    12de:	80 91 9f 01 	lds	r24, 0x019F	; 0x80019f <EE+0x2>
    12e2:	90 91 a0 01 	lds	r25, 0x01A0	; 0x8001a0 <EE+0x3>
    12e6:	0e 94 a4 13 	call	0x2748	; 0x2748 <__mulsf3>
    12ea:	0e 94 03 12 	call	0x2406	; 0x2406 <__fixsfsi>
    12ee:	70 93 8d 01 	sts	0x018D, r23	; 0x80018d <send_data+0x1>
    12f2:	60 93 8c 01 	sts	0x018C, r22	; 0x80018c <send_data>
    12f6:	20 e0       	ldi	r18, 0x00	; 0
    12f8:	30 e0       	ldi	r19, 0x00	; 0
    12fa:	48 ec       	ldi	r20, 0xC8	; 200
    12fc:	52 e4       	ldi	r21, 0x42	; 66
    12fe:	60 91 a1 01 	lds	r22, 0x01A1	; 0x8001a1 <EE+0x4>
    1302:	70 91 a2 01 	lds	r23, 0x01A2	; 0x8001a2 <EE+0x5>
    1306:	80 91 a3 01 	lds	r24, 0x01A3	; 0x8001a3 <EE+0x6>
    130a:	90 91 a4 01 	lds	r25, 0x01A4	; 0x8001a4 <EE+0x7>
    130e:	0e 94 a4 13 	call	0x2748	; 0x2748 <__mulsf3>
    1312:	0e 94 03 12 	call	0x2406	; 0x2406 <__fixsfsi>
    1316:	70 93 8f 01 	sts	0x018F, r23	; 0x80018f <send_data+0x3>
    131a:	60 93 8e 01 	sts	0x018E, r22	; 0x80018e <send_data+0x2>
    131e:	ec e8       	ldi	r30, 0x8C	; 140
    1320:	f1 e0       	ldi	r31, 0x01	; 1
    1322:	22 e9       	ldi	r18, 0x92	; 146
    1324:	31 e0       	ldi	r19, 0x01	; 1
    1326:	91 91       	ld	r25, Z+
    1328:	80 91 c8 00 	lds	r24, 0x00C8	; 0x8000c8 <__TEXT_REGION_LENGTH__+0x7e00c8>
    132c:	85 ff       	sbrs	r24, 5
    132e:	fc cf       	rjmp	.-8      	; 0x1328 <__vector_28+0x274>
    1330:	90 93 ce 00 	sts	0x00CE, r25	; 0x8000ce <__TEXT_REGION_LENGTH__+0x7e00ce>
    1334:	2e 17       	cp	r18, r30
    1336:	3f 07       	cpc	r19, r31
    1338:	b1 f7       	brne	.-20     	; 0x1326 <__vector_28+0x272>
    133a:	d7 ce       	rjmp	.-594    	; 0x10ea <__vector_28+0x36>
    133c:	e7 eb       	ldi	r30, 0xB7	; 183
    133e:	f1 e0       	ldi	r31, 0x01	; 1
    1340:	91 91       	ld	r25, Z+
    1342:	80 91 c8 00 	lds	r24, 0x00C8	; 0x8000c8 <__TEXT_REGION_LENGTH__+0x7e00c8>
    1346:	85 ff       	sbrs	r24, 5
    1348:	fc cf       	rjmp	.-8      	; 0x1342 <__vector_28+0x28e>
    134a:	90 93 ce 00 	sts	0x00CE, r25	; 0x8000ce <__TEXT_REGION_LENGTH__+0x7e00ce>
    134e:	81 e0       	ldi	r24, 0x01	; 1
    1350:	ed 3b       	cpi	r30, 0xBD	; 189
    1352:	f8 07       	cpc	r31, r24
    1354:	a9 f7       	brne	.-22     	; 0x1340 <__vector_28+0x28c>
    1356:	c9 ce       	rjmp	.-622    	; 0x10ea <__vector_28+0x36>
    1358:	ed eb       	ldi	r30, 0xBD	; 189
    135a:	f1 e0       	ldi	r31, 0x01	; 1
    135c:	43 ec       	ldi	r20, 0xC3	; 195
    135e:	51 e0       	ldi	r21, 0x01	; 1
    1360:	80 91 c8 00 	lds	r24, 0x00C8	; 0x8000c8 <__TEXT_REGION_LENGTH__+0x7e00c8>
    1364:	87 ff       	sbrs	r24, 7
    1366:	fc cf       	rjmp	.-8      	; 0x1360 <__vector_28+0x2ac>
    1368:	90 91 ce 00 	lds	r25, 0x00CE	; 0x8000ce <__TEXT_REGION_LENGTH__+0x7e00ce>
    136c:	80 91 c8 00 	lds	r24, 0x00C8	; 0x8000c8 <__TEXT_REGION_LENGTH__+0x7e00c8>
    1370:	87 ff       	sbrs	r24, 7
    1372:	fc cf       	rjmp	.-8      	; 0x136c <__vector_28+0x2b8>
    1374:	20 91 ce 00 	lds	r18, 0x00CE	; 0x8000ce <__TEXT_REGION_LENGTH__+0x7e00ce>
    1378:	89 2f       	mov	r24, r25
    137a:	90 e0       	ldi	r25, 0x00	; 0
    137c:	92 2b       	or	r25, r18
    137e:	81 93       	st	Z+, r24
    1380:	91 93       	st	Z+, r25
    1382:	4e 17       	cp	r20, r30
    1384:	5f 07       	cpc	r21, r31
    1386:	61 f7       	brne	.-40     	; 0x1360 <__vector_28+0x2ac>
    1388:	b0 ce       	rjmp	.-672    	; 0x10ea <__vector_28+0x36>

0000138a <runTWI>:
    138a:	27 d6       	rcall	.+3150   	; 0x1fda <TWI_Transceiver_Busy>
    138c:	81 11       	cpse	r24, r1
    138e:	09 c0       	rjmp	.+18     	; 0x13a2 <runTWI+0x18>
    1390:	80 91 aa 01 	lds	r24, 0x01AA	; 0x8001aa <TWI_statusReg>
    1394:	80 ff       	sbrs	r24, 0
    1396:	06 c0       	rjmp	.+12     	; 0x13a4 <runTWI+0x1a>
    1398:	81 fd       	sbrc	r24, 1
    139a:	07 c0       	rjmp	.+14     	; 0x13aa <runTWI+0x20>
    139c:	1e d6       	rcall	.+3132   	; 0x1fda <TWI_Transceiver_Busy>
    139e:	88 23       	and	r24, r24
    13a0:	19 f0       	breq	.+6      	; 0x13a8 <runTWI+0x1e>
    13a2:	08 95       	ret
    13a4:	1d d6       	rcall	.+3130   	; 0x1fe0 <TWI_Get_State_Info>
    13a6:	23 c6       	rjmp	.+3142   	; 0x1fee <TWI_Start_Transceiver>
    13a8:	22 c6       	rjmp	.+3140   	; 0x1fee <TWI_Start_Transceiver>
    13aa:	64 e0       	ldi	r22, 0x04	; 4
    13ac:	8f ec       	ldi	r24, 0xCF	; 207
    13ae:	91 e0       	ldi	r25, 0x01	; 1
    13b0:	2e d6       	rcall	.+3164   	; 0x200e <TWI_Get_Data_From_Transceiver>
    13b2:	10 92 d3 01 	sts	0x01D3, r1	; 0x8001d3 <message_buf+0x4>
    13b6:	8f ec       	ldi	r24, 0xCF	; 207
    13b8:	91 e0       	ldi	r25, 0x01	; 1
    13ba:	0e 94 6d 15 	call	0x2ada	; 0x2ada <atoi>
    13be:	90 93 3f 01 	sts	0x013F, r25	; 0x80013f <i2c_data+0x1>
    13c2:	80 93 3e 01 	sts	0x013E, r24	; 0x80013e <i2c_data>
    13c6:	81 e0       	ldi	r24, 0x01	; 1
    13c8:	90 e0       	ldi	r25, 0x00	; 0
    13ca:	90 93 71 01 	sts	0x0171, r25	; 0x800171 <new_data_rec+0x1>
    13ce:	80 93 70 01 	sts	0x0170, r24	; 0x800170 <new_data_rec>
    13d2:	e4 cf       	rjmp	.-56     	; 0x139c <runTWI+0x12>

000013d4 <sendMotor>:
    13d4:	2f 92       	push	r2
    13d6:	3f 92       	push	r3
    13d8:	4f 92       	push	r4
    13da:	5f 92       	push	r5
    13dc:	6f 92       	push	r6
    13de:	7f 92       	push	r7
    13e0:	8f 92       	push	r8
    13e2:	9f 92       	push	r9
    13e4:	af 92       	push	r10
    13e6:	bf 92       	push	r11
    13e8:	cf 92       	push	r12
    13ea:	df 92       	push	r13
    13ec:	ef 92       	push	r14
    13ee:	ff 92       	push	r15
    13f0:	0f 93       	push	r16
    13f2:	1f 93       	push	r17
    13f4:	cf 93       	push	r28
    13f6:	df 93       	push	r29
    13f8:	cd b7       	in	r28, 0x3d	; 61
    13fa:	de b7       	in	r29, 0x3e	; 62
    13fc:	64 97       	sbiw	r28, 0x14	; 20
    13fe:	0f b6       	in	r0, 0x3f	; 63
    1400:	f8 94       	cli
    1402:	de bf       	out	0x3e, r29	; 62
    1404:	0f be       	out	0x3f, r0	; 63
    1406:	cd bf       	out	0x3d, r28	; 61
    1408:	19 82       	std	Y+1, r1	; 0x01
    140a:	1a 82       	std	Y+2, r1	; 0x02
    140c:	1b 82       	std	Y+3, r1	; 0x03
    140e:	1c 82       	std	Y+4, r1	; 0x04
    1410:	1d 82       	std	Y+5, r1	; 0x05
    1412:	1e 82       	std	Y+6, r1	; 0x06
    1414:	1f 82       	std	Y+7, r1	; 0x07
    1416:	18 86       	std	Y+8, r1	; 0x08
    1418:	19 86       	std	Y+9, r1	; 0x09
    141a:	1a 86       	std	Y+10, r1	; 0x0a
    141c:	1b 86       	std	Y+11, r1	; 0x0b
    141e:	1c 86       	std	Y+12, r1	; 0x0c
    1420:	20 91 a1 01 	lds	r18, 0x01A1	; 0x8001a1 <EE+0x4>
    1424:	30 91 a2 01 	lds	r19, 0x01A2	; 0x8001a2 <EE+0x5>
    1428:	40 91 a3 01 	lds	r20, 0x01A3	; 0x8001a3 <EE+0x6>
    142c:	50 91 a4 01 	lds	r21, 0x01A4	; 0x8001a4 <EE+0x7>
    1430:	60 91 9d 01 	lds	r22, 0x019D	; 0x80019d <EE>
    1434:	70 91 9e 01 	lds	r23, 0x019E	; 0x80019e <EE+0x1>
    1438:	80 91 9f 01 	lds	r24, 0x019F	; 0x80019f <EE+0x2>
    143c:	90 91 a0 01 	lds	r25, 0x01A0	; 0x8001a0 <EE+0x3>
    1440:	05 ed       	ldi	r16, 0xD5	; 213
    1442:	11 e0       	ldi	r17, 0x01	; 1
    1444:	13 d8       	rcall	.-4058   	; 0x46c <calculateJacobian>
    1446:	ce 01       	movw	r24, r28
    1448:	01 96       	adiw	r24, 0x01	; 1
    144a:	1c 01       	movw	r2, r24
    144c:	8a e1       	ldi	r24, 0x1A	; 26
    144e:	88 2e       	mov	r8, r24
    1450:	81 e0       	ldi	r24, 0x01	; 1
    1452:	98 2e       	mov	r9, r24
    1454:	fe 01       	movw	r30, r28
    1456:	3d 96       	adiw	r30, 0x0d	; 13
    1458:	fc 8b       	std	Y+20, r31	; 0x14
    145a:	eb 8b       	std	Y+19, r30	; 0x13
    145c:	71 01       	movw	r14, r2
    145e:	41 2c       	mov	r4, r1
    1460:	51 2c       	mov	r5, r1
    1462:	32 01       	movw	r6, r4
    1464:	9c e8       	ldi	r25, 0x8C	; 140
    1466:	a9 2e       	mov	r10, r25
    1468:	91 e0       	ldi	r25, 0x01	; 1
    146a:	b9 2e       	mov	r11, r25
    146c:	00 e8       	ldi	r16, 0x80	; 128
    146e:	11 e0       	ldi	r17, 0x01	; 1
    1470:	64 01       	movw	r12, r8
    1472:	f6 01       	movw	r30, r12
    1474:	61 91       	ld	r22, Z+
    1476:	71 91       	ld	r23, Z+
    1478:	81 91       	ld	r24, Z+
    147a:	91 91       	ld	r25, Z+
    147c:	6f 01       	movw	r12, r30
    147e:	f8 01       	movw	r30, r16
    1480:	21 91       	ld	r18, Z+
    1482:	31 91       	ld	r19, Z+
    1484:	41 91       	ld	r20, Z+
    1486:	51 91       	ld	r21, Z+
    1488:	8f 01       	movw	r16, r30
    148a:	0e 94 a4 13 	call	0x2748	; 0x2748 <__mulsf3>
    148e:	9b 01       	movw	r18, r22
    1490:	ac 01       	movw	r20, r24
    1492:	c3 01       	movw	r24, r6
    1494:	b2 01       	movw	r22, r4
    1496:	82 d6       	rcall	.+3332   	; 0x219c <__addsf3>
    1498:	2b 01       	movw	r4, r22
    149a:	3c 01       	movw	r6, r24
    149c:	a0 16       	cp	r10, r16
    149e:	b1 06       	cpc	r11, r17
    14a0:	41 f7       	brne	.-48     	; 0x1472 <sendMotor+0x9e>
    14a2:	f7 01       	movw	r30, r14
    14a4:	61 93       	st	Z+, r22
    14a6:	71 93       	st	Z+, r23
    14a8:	81 93       	st	Z+, r24
    14aa:	91 93       	st	Z+, r25
    14ac:	7f 01       	movw	r14, r30
    14ae:	fc e0       	ldi	r31, 0x0C	; 12
    14b0:	8f 0e       	add	r8, r31
    14b2:	91 1c       	adc	r9, r1
    14b4:	8b 89       	ldd	r24, Y+19	; 0x13
    14b6:	9c 89       	ldd	r25, Y+20	; 0x14
    14b8:	e8 16       	cp	r14, r24
    14ba:	f9 06       	cpc	r15, r25
    14bc:	31 f0       	breq	.+12     	; 0x14ca <sendMotor+0xf6>
    14be:	f7 01       	movw	r30, r14
    14c0:	40 80       	ld	r4, Z
    14c2:	51 80       	ldd	r5, Z+1	; 0x01
    14c4:	62 80       	ldd	r6, Z+2	; 0x02
    14c6:	73 80       	ldd	r7, Z+3	; 0x03
    14c8:	d1 cf       	rjmp	.-94     	; 0x146c <sendMotor+0x98>
    14ca:	20 e0       	ldi	r18, 0x00	; 0
    14cc:	30 e0       	ldi	r19, 0x00	; 0
    14ce:	40 ee       	ldi	r20, 0xE0	; 224
    14d0:	5f e3       	ldi	r21, 0x3F	; 63
    14d2:	6d 81       	ldd	r22, Y+5	; 0x05
    14d4:	7e 81       	ldd	r23, Y+6	; 0x06
    14d6:	8f 81       	ldd	r24, Y+7	; 0x07
    14d8:	98 85       	ldd	r25, Y+8	; 0x08
    14da:	0e 94 a4 13 	call	0x2748	; 0x2748 <__mulsf3>
    14de:	6d 83       	std	Y+5, r22	; 0x05
    14e0:	7e 83       	std	Y+6, r23	; 0x06
    14e2:	8f 83       	std	Y+7, r24	; 0x07
    14e4:	98 87       	std	Y+8, r25	; 0x08
    14e6:	8e 01       	movw	r16, r28
    14e8:	0d 5e       	subi	r16, 0xED	; 237
    14ea:	1f 4f       	sbci	r17, 0xFF	; 255
    14ec:	f1 01       	movw	r30, r2
    14ee:	61 91       	ld	r22, Z+
    14f0:	71 91       	ld	r23, Z+
    14f2:	81 91       	ld	r24, Z+
    14f4:	91 91       	ld	r25, Z+
    14f6:	1f 01       	movw	r2, r30
    14f8:	0e 94 07 14 	call	0x280e	; 0x280e <round>
    14fc:	84 d7       	rcall	.+3848   	; 0x2406 <__fixsfsi>
    14fe:	6f 3f       	cpi	r22, 0xFF	; 255
    1500:	71 05       	cpc	r23, r1
    1502:	11 f0       	breq	.+4      	; 0x1508 <sendMotor+0x134>
    1504:	0c f0       	brlt	.+2      	; 0x1508 <sendMotor+0x134>
    1506:	5d c0       	rjmp	.+186    	; 0x15c2 <sendMotor+0x1ee>
    1508:	61 30       	cpi	r22, 0x01	; 1
    150a:	ff ef       	ldi	r31, 0xFF	; 255
    150c:	7f 07       	cpc	r23, r31
    150e:	0c f4       	brge	.+2      	; 0x1512 <sendMotor+0x13e>
    1510:	5a c0       	rjmp	.+180    	; 0x15c6 <sendMotor+0x1f2>
    1512:	77 fd       	sbrc	r23, 7
    1514:	5d c0       	rjmp	.+186    	; 0x15d0 <sendMotor+0x1fc>
    1516:	f7 01       	movw	r30, r14
    1518:	10 82       	st	Z, r1
    151a:	61 83       	std	Z+1, r22	; 0x01
    151c:	f2 e0       	ldi	r31, 0x02	; 2
    151e:	ef 0e       	add	r14, r31
    1520:	f1 1c       	adc	r15, r1
    1522:	0e 15       	cp	r16, r14
    1524:	1f 05       	cpc	r17, r15
    1526:	11 f7       	brne	.-60     	; 0x14ec <sendMotor+0x118>
    1528:	2d 85       	ldd	r18, Y+13	; 0x0d
    152a:	82 2f       	mov	r24, r18
    152c:	90 e0       	ldi	r25, 0x00	; 0
    152e:	90 93 fa 01 	sts	0x01FA, r25	; 0x8001fa <thisVoltage+0x1>
    1532:	80 93 f9 01 	sts	0x01F9, r24	; 0x8001f9 <thisVoltage>
    1536:	8e 85       	ldd	r24, Y+14	; 0x0e
    1538:	90 e0       	ldi	r25, 0x00	; 0
    153a:	90 93 fc 01 	sts	0x01FC, r25	; 0x8001fc <thisVoltage+0x3>
    153e:	80 93 fb 01 	sts	0x01FB, r24	; 0x8001fb <thisVoltage+0x2>
    1542:	8f 85       	ldd	r24, Y+15	; 0x0f
    1544:	90 e0       	ldi	r25, 0x00	; 0
    1546:	90 93 fe 01 	sts	0x01FE, r25	; 0x8001fe <thisVoltage+0x5>
    154a:	80 93 fd 01 	sts	0x01FD, r24	; 0x8001fd <thisVoltage+0x4>
    154e:	88 89       	ldd	r24, Y+16	; 0x10
    1550:	90 e0       	ldi	r25, 0x00	; 0
    1552:	90 93 00 02 	sts	0x0200, r25	; 0x800200 <thisVoltage+0x7>
    1556:	80 93 ff 01 	sts	0x01FF, r24	; 0x8001ff <thisVoltage+0x6>
    155a:	89 89       	ldd	r24, Y+17	; 0x11
    155c:	90 e0       	ldi	r25, 0x00	; 0
    155e:	90 93 02 02 	sts	0x0202, r25	; 0x800202 <thisVoltage+0x9>
    1562:	80 93 01 02 	sts	0x0201, r24	; 0x800201 <thisVoltage+0x8>
    1566:	8a 89       	ldd	r24, Y+18	; 0x12
    1568:	90 e0       	ldi	r25, 0x00	; 0
    156a:	90 93 04 02 	sts	0x0204, r25	; 0x800204 <thisVoltage+0xb>
    156e:	80 93 03 02 	sts	0x0203, r24	; 0x800203 <thisVoltage+0xa>
    1572:	20 93 88 00 	sts	0x0088, r18	; 0x800088 <__TEXT_REGION_LENGTH__+0x7e0088>
    1576:	8e 85       	ldd	r24, Y+14	; 0x0e
    1578:	80 93 8a 00 	sts	0x008A, r24	; 0x80008a <__TEXT_REGION_LENGTH__+0x7e008a>
    157c:	8f 85       	ldd	r24, Y+15	; 0x0f
    157e:	87 bd       	out	0x27, r24	; 39
    1580:	88 89       	ldd	r24, Y+16	; 0x10
    1582:	88 bd       	out	0x28, r24	; 40
    1584:	89 89       	ldd	r24, Y+17	; 0x11
    1586:	80 93 b3 00 	sts	0x00B3, r24	; 0x8000b3 <__TEXT_REGION_LENGTH__+0x7e00b3>
    158a:	8a 89       	ldd	r24, Y+18	; 0x12
    158c:	80 93 b4 00 	sts	0x00B4, r24	; 0x8000b4 <__TEXT_REGION_LENGTH__+0x7e00b4>
    1590:	64 96       	adiw	r28, 0x14	; 20
    1592:	0f b6       	in	r0, 0x3f	; 63
    1594:	f8 94       	cli
    1596:	de bf       	out	0x3e, r29	; 62
    1598:	0f be       	out	0x3f, r0	; 63
    159a:	cd bf       	out	0x3d, r28	; 61
    159c:	df 91       	pop	r29
    159e:	cf 91       	pop	r28
    15a0:	1f 91       	pop	r17
    15a2:	0f 91       	pop	r16
    15a4:	ff 90       	pop	r15
    15a6:	ef 90       	pop	r14
    15a8:	df 90       	pop	r13
    15aa:	cf 90       	pop	r12
    15ac:	bf 90       	pop	r11
    15ae:	af 90       	pop	r10
    15b0:	9f 90       	pop	r9
    15b2:	8f 90       	pop	r8
    15b4:	7f 90       	pop	r7
    15b6:	6f 90       	pop	r6
    15b8:	5f 90       	pop	r5
    15ba:	4f 90       	pop	r4
    15bc:	3f 90       	pop	r3
    15be:	2f 90       	pop	r2
    15c0:	08 95       	ret
    15c2:	6f ef       	ldi	r22, 0xFF	; 255
    15c4:	a8 cf       	rjmp	.-176    	; 0x1516 <sendMotor+0x142>
    15c6:	6f ef       	ldi	r22, 0xFF	; 255
    15c8:	f7 01       	movw	r30, r14
    15ca:	60 83       	st	Z, r22
    15cc:	11 82       	std	Z+1, r1	; 0x01
    15ce:	a6 cf       	rjmp	.-180    	; 0x151c <sendMotor+0x148>
    15d0:	61 95       	neg	r22
    15d2:	fa cf       	rjmp	.-12     	; 0x15c8 <sendMotor+0x1f4>

000015d4 <perturbation>:
}


//		Get random angle for perturbation of LoA Search
//========================================================================
void perturbation (void) {
    15d4:	cf 92       	push	r12
    15d6:	df 92       	push	r13
    15d8:	ef 92       	push	r14
    15da:	ff 92       	push	r15
    15dc:	0f 93       	push	r16
    15de:	1f 93       	push	r17
    15e0:	cf 93       	push	r28
    15e2:	df 93       	push	r29
    15e4:	cd b7       	in	r28, 0x3d	; 61
    15e6:	de b7       	in	r29, 0x3e	; 62
    15e8:	60 97       	sbiw	r28, 0x10	; 16
    15ea:	0f b6       	in	r0, 0x3f	; 63
    15ec:	f8 94       	cli
    15ee:	de bf       	out	0x3e, r29	; 62
    15f0:	0f be       	out	0x3f, r0	; 63
    15f2:	cd bf       	out	0x3d, r28	; 61
	Vector2D temp_u = {u_r[1], u_r[2]};
    15f4:	80 e8       	ldi	r24, 0x80	; 128
    15f6:	c8 2e       	mov	r12, r24
    15f8:	81 e0       	ldi	r24, 0x01	; 1
    15fa:	d8 2e       	mov	r13, r24
    15fc:	f6 01       	movw	r30, r12
    15fe:	84 81       	ldd	r24, Z+4	; 0x04
    1600:	95 81       	ldd	r25, Z+5	; 0x05
    1602:	a6 81       	ldd	r26, Z+6	; 0x06
    1604:	b7 81       	ldd	r27, Z+7	; 0x07
    1606:	89 87       	std	Y+9, r24	; 0x09
    1608:	9a 87       	std	Y+10, r25	; 0x0a
    160a:	ab 87       	std	Y+11, r26	; 0x0b
    160c:	bc 87       	std	Y+12, r27	; 0x0c
    160e:	80 85       	ldd	r24, Z+8	; 0x08
    1610:	91 85       	ldd	r25, Z+9	; 0x09
    1612:	a2 85       	ldd	r26, Z+10	; 0x0a
    1614:	b3 85       	ldd	r27, Z+11	; 0x0b
    1616:	8d 87       	std	Y+13, r24	; 0x0d
    1618:	9e 87       	std	Y+14, r25	; 0x0e
    161a:	af 87       	std	Y+15, r26	; 0x0f
    161c:	b8 8b       	std	Y+16, r27	; 0x10
	Vector2D rot_u;
	
	float perturbation_angle = ((float)rand() / (float)RAND_MAX - 0.5) * M_PI / 12.0;  // +/- 15 degrees
    161e:	0e 94 5f 15 	call	0x2abe	; 0x2abe <rand>
	
	rot_u = rotateVector(temp_u, perturbation_angle);
    1622:	bc 01       	movw	r22, r24
    1624:	99 0f       	add	r25, r25
    1626:	88 0b       	sbc	r24, r24
    1628:	99 0b       	sbc	r25, r25
    162a:	20 d7       	rcall	.+3648   	; 0x246c <__floatsisf>
    162c:	20 e0       	ldi	r18, 0x00	; 0
    162e:	3e ef       	ldi	r19, 0xFE	; 254
    1630:	4f ef       	ldi	r20, 0xFF	; 255
    1632:	56 e4       	ldi	r21, 0x46	; 70
    1634:	80 d6       	rcall	.+3328   	; 0x2336 <__divsf3>
    1636:	20 e0       	ldi	r18, 0x00	; 0
    1638:	30 e0       	ldi	r19, 0x00	; 0
    163a:	40 e0       	ldi	r20, 0x00	; 0
    163c:	5f e3       	ldi	r21, 0x3F	; 63
    163e:	ad d5       	rcall	.+2906   	; 0x219a <__subsf3>
    1640:	2b ed       	ldi	r18, 0xDB	; 219
    1642:	3f e0       	ldi	r19, 0x0F	; 15
    1644:	49 e4       	ldi	r20, 0x49	; 73
    1646:	50 e4       	ldi	r21, 0x40	; 64
    1648:	0e 94 a4 13 	call	0x2748	; 0x2748 <__mulsf3>
    164c:	20 e0       	ldi	r18, 0x00	; 0
    164e:	30 e0       	ldi	r19, 0x00	; 0
    1650:	40 e4       	ldi	r20, 0x40	; 64
    1652:	51 e4       	ldi	r21, 0x41	; 65
    1654:	70 d6       	rcall	.+3296   	; 0x2336 <__divsf3>
    1656:	7b 01       	movw	r14, r22
    1658:	8c 01       	movw	r16, r24
    165a:	29 85       	ldd	r18, Y+9	; 0x09
    165c:	3a 85       	ldd	r19, Y+10	; 0x0a
    165e:	4b 85       	ldd	r20, Y+11	; 0x0b
    1660:	5c 85       	ldd	r21, Y+12	; 0x0c
    1662:	6d 85       	ldd	r22, Y+13	; 0x0d
    1664:	7e 85       	ldd	r23, Y+14	; 0x0e
    1666:	8f 85       	ldd	r24, Y+15	; 0x0f
    1668:	98 89       	ldd	r25, Y+16	; 0x10
    166a:	5c d8       	rcall	.-3912   	; 0x724 <rotateVector>
    166c:	29 83       	std	Y+1, r18	; 0x01
    166e:	3a 83       	std	Y+2, r19	; 0x02
    1670:	4b 83       	std	Y+3, r20	; 0x03
    1672:	5c 83       	std	Y+4, r21	; 0x04
    1674:	6d 83       	std	Y+5, r22	; 0x05
    1676:	7e 83       	std	Y+6, r23	; 0x06
    1678:	8f 83       	std	Y+7, r24	; 0x07
    167a:	98 87       	std	Y+8, r25	; 0x08
	u_r[1] = rot_u.x;
    167c:	89 81       	ldd	r24, Y+1	; 0x01
    167e:	9a 81       	ldd	r25, Y+2	; 0x02
    1680:	ab 81       	ldd	r26, Y+3	; 0x03
    1682:	bc 81       	ldd	r27, Y+4	; 0x04
    1684:	f6 01       	movw	r30, r12
    1686:	84 83       	std	Z+4, r24	; 0x04
    1688:	95 83       	std	Z+5, r25	; 0x05
    168a:	a6 83       	std	Z+6, r26	; 0x06
    168c:	b7 83       	std	Z+7, r27	; 0x07
	u_r[2] = rot_u.y;
    168e:	8d 81       	ldd	r24, Y+5	; 0x05
    1690:	9e 81       	ldd	r25, Y+6	; 0x06
    1692:	af 81       	ldd	r26, Y+7	; 0x07
    1694:	b8 85       	ldd	r27, Y+8	; 0x08
    1696:	80 87       	std	Z+8, r24	; 0x08
    1698:	91 87       	std	Z+9, r25	; 0x09
    169a:	a2 87       	std	Z+10, r26	; 0x0a
    169c:	b3 87       	std	Z+11, r27	; 0x0b
}
    169e:	60 96       	adiw	r28, 0x10	; 16
    16a0:	0f b6       	in	r0, 0x3f	; 63
    16a2:	f8 94       	cli
    16a4:	de bf       	out	0x3e, r29	; 62
    16a6:	0f be       	out	0x3f, r0	; 63
    16a8:	cd bf       	out	0x3d, r28	; 61
    16aa:	df 91       	pop	r29
    16ac:	cf 91       	pop	r28
    16ae:	1f 91       	pop	r17
    16b0:	0f 91       	pop	r16
    16b2:	ff 90       	pop	r15
    16b4:	ef 90       	pop	r14
    16b6:	df 90       	pop	r13
    16b8:	cf 90       	pop	r12
    16ba:	08 95       	ret

000016bc <correctAttitude>:


//		Correct the attitude of the robot using force sensor
//========================================================================
void correctAttitude (PIDController *pid_att) {
    16bc:	4f 92       	push	r4
    16be:	5f 92       	push	r5
    16c0:	6f 92       	push	r6
    16c2:	7f 92       	push	r7
    16c4:	8f 92       	push	r8
    16c6:	9f 92       	push	r9
    16c8:	af 92       	push	r10
    16ca:	bf 92       	push	r11
    16cc:	cf 92       	push	r12
    16ce:	df 92       	push	r13
    16d0:	ef 92       	push	r14
    16d2:	ff 92       	push	r15
    16d4:	cf 93       	push	r28
    16d6:	df 93       	push	r29
    16d8:	ec 01       	movw	r28, r24
		//stop_counter	= 0;		// Reset stop counter if payload rotating excessively (don't need exact rate of change assuming dt is const)
		
	//rot_mem				= i2c_data;	// Update rotation memory for next time step
	
	// ----- PID Controller -----
	float error			= pid_att->setPoint - i2c_data;
    16da:	60 91 3e 01 	lds	r22, 0x013E	; 0x80013e <i2c_data>
    16de:	70 91 3f 01 	lds	r23, 0x013F	; 0x80013f <i2c_data+0x1>
    16e2:	07 2e       	mov	r0, r23
    16e4:	00 0c       	add	r0, r0
    16e6:	88 0b       	sbc	r24, r24
    16e8:	99 0b       	sbc	r25, r25
    16ea:	c0 d6       	rcall	.+3456   	; 0x246c <__floatsisf>
    16ec:	9b 01       	movw	r18, r22
    16ee:	ac 01       	movw	r20, r24
    16f0:	6c 89       	ldd	r22, Y+20	; 0x14
    16f2:	7d 89       	ldd	r23, Y+21	; 0x15
    16f4:	8e 89       	ldd	r24, Y+22	; 0x16
    16f6:	9f 89       	ldd	r25, Y+23	; 0x17
    16f8:	50 d5       	rcall	.+2720   	; 0x219a <__subsf3>
    16fa:	6b 01       	movw	r12, r22
    16fc:	7c 01       	movw	r14, r24
	pid_att->integral	+= error;
    16fe:	2c 85       	ldd	r18, Y+12	; 0x0c
    1700:	3d 85       	ldd	r19, Y+13	; 0x0d
    1702:	4e 85       	ldd	r20, Y+14	; 0x0e
    1704:	5f 85       	ldd	r21, Y+15	; 0x0f
    1706:	4a d5       	rcall	.+2708   	; 0x219c <__addsf3>
    1708:	4b 01       	movw	r8, r22
    170a:	5c 01       	movw	r10, r24
    170c:	6c 87       	std	Y+12, r22	; 0x0c
    170e:	7d 87       	std	Y+13, r23	; 0x0d
    1710:	8e 87       	std	Y+14, r24	; 0x0e
    1712:	9f 87       	std	Y+15, r25	; 0x0f
	float derivative	= (error - pid_att->prevError);
	float output		= pid_att->Kp  * error   +   pid_att->Ki  *  pid_att->integral   +   pid_att->Kd  * derivative;
    1714:	28 81       	ld	r18, Y
    1716:	39 81       	ldd	r19, Y+1	; 0x01
    1718:	4a 81       	ldd	r20, Y+2	; 0x02
    171a:	5b 81       	ldd	r21, Y+3	; 0x03
    171c:	c7 01       	movw	r24, r14
    171e:	b6 01       	movw	r22, r12
    1720:	0e 94 a4 13 	call	0x2748	; 0x2748 <__mulsf3>
    1724:	2b 01       	movw	r4, r22
    1726:	3c 01       	movw	r6, r24
    1728:	2c 81       	ldd	r18, Y+4	; 0x04
    172a:	3d 81       	ldd	r19, Y+5	; 0x05
    172c:	4e 81       	ldd	r20, Y+6	; 0x06
    172e:	5f 81       	ldd	r21, Y+7	; 0x07
    1730:	c5 01       	movw	r24, r10
    1732:	b4 01       	movw	r22, r8
    1734:	0e 94 a4 13 	call	0x2748	; 0x2748 <__mulsf3>
    1738:	9b 01       	movw	r18, r22
    173a:	ac 01       	movw	r20, r24
    173c:	c3 01       	movw	r24, r6
    173e:	b2 01       	movw	r22, r4
    1740:	2d d5       	rcall	.+2650   	; 0x219c <__addsf3>
    1742:	4b 01       	movw	r8, r22
    1744:	5c 01       	movw	r10, r24
    1746:	28 89       	ldd	r18, Y+16	; 0x10
    1748:	39 89       	ldd	r19, Y+17	; 0x11
    174a:	4a 89       	ldd	r20, Y+18	; 0x12
    174c:	5b 89       	ldd	r21, Y+19	; 0x13
    174e:	c7 01       	movw	r24, r14
    1750:	b6 01       	movw	r22, r12
    1752:	23 d5       	rcall	.+2630   	; 0x219a <__subsf3>
    1754:	28 85       	ldd	r18, Y+8	; 0x08
    1756:	39 85       	ldd	r19, Y+9	; 0x09
    1758:	4a 85       	ldd	r20, Y+10	; 0x0a
    175a:	5b 85       	ldd	r21, Y+11	; 0x0b
    175c:	f5 d7       	rcall	.+4074   	; 0x2748 <__mulsf3>
    175e:	9b 01       	movw	r18, r22
    1760:	ac 01       	movw	r20, r24
    1762:	c5 01       	movw	r24, r10
    1764:	b4 01       	movw	r22, r8
    1766:	1a d5       	rcall	.+2612   	; 0x219c <__addsf3>
	pid_att->prevError	= error;
    1768:	c8 8a       	std	Y+16, r12	; 0x10
    176a:	d9 8a       	std	Y+17, r13	; 0x11
    176c:	ea 8a       	std	Y+18, r14	; 0x12
    176e:	fb 8a       	std	Y+19, r15	; 0x13

	// ==== Assign to Control Input Array ====
	u_r[0]				= output;	// Assign z-axis motor command
    1770:	60 93 80 01 	sts	0x0180, r22	; 0x800180 <u_r>
    1774:	70 93 81 01 	sts	0x0181, r23	; 0x800181 <u_r+0x1>
    1778:	80 93 82 01 	sts	0x0182, r24	; 0x800182 <u_r+0x2>
    177c:	90 93 83 01 	sts	0x0183, r25	; 0x800183 <u_r+0x3>
}
    1780:	df 91       	pop	r29
    1782:	cf 91       	pop	r28
    1784:	ff 90       	pop	r15
    1786:	ef 90       	pop	r14
    1788:	df 90       	pop	r13
    178a:	cf 90       	pop	r12
    178c:	bf 90       	pop	r11
    178e:	af 90       	pop	r10
    1790:	9f 90       	pop	r9
    1792:	8f 90       	pop	r8
    1794:	7f 90       	pop	r7
    1796:	6f 90       	pop	r6
    1798:	5f 90       	pop	r5
    179a:	4f 90       	pop	r4
    179c:	08 95       	ret

0000179e <loaSearch>:

//		LoA Search - Binary Search Algorithm
//========================================================================
void loaSearch (void) {
    179e:	4f 92       	push	r4
    17a0:	5f 92       	push	r5
    17a2:	6f 92       	push	r6
    17a4:	7f 92       	push	r7
    17a6:	8f 92       	push	r8
    17a8:	9f 92       	push	r9
    17aa:	af 92       	push	r10
    17ac:	bf 92       	push	r11
    17ae:	cf 92       	push	r12
    17b0:	df 92       	push	r13
    17b2:	ef 92       	push	r14
    17b4:	ff 92       	push	r15
    17b6:	cf 93       	push	r28
    17b8:	df 93       	push	r29
    17ba:	cd b7       	in	r28, 0x3d	; 61
    17bc:	de b7       	in	r29, 0x3e	; 62
    17be:	2c 97       	sbiw	r28, 0x0c	; 12
    17c0:	0f b6       	in	r0, 0x3f	; 63
    17c2:	f8 94       	cli
    17c4:	de bf       	out	0x3e, r29	; 62
    17c6:	0f be       	out	0x3f, r0	; 63
    17c8:	cd bf       	out	0x3d, r28	; 61
	// u_r = [Z X Y] (Clockwise, Right, Forward)
		
	// Determine payload rotation sense with force feedback
	Vector2D f_s			= {-EE[0],		-EE[1]};	 // Force sensor 'direction' - opposite of reading (flip EE vector)
    17ca:	40 90 9d 01 	lds	r4, 0x019D	; 0x80019d <EE>
    17ce:	50 90 9e 01 	lds	r5, 0x019E	; 0x80019e <EE+0x1>
    17d2:	60 90 9f 01 	lds	r6, 0x019F	; 0x80019f <EE+0x2>
    17d6:	70 90 a0 01 	lds	r7, 0x01A0	; 0x8001a0 <EE+0x3>
    17da:	77 fa       	bst	r7, 7
    17dc:	70 94       	com	r7
    17de:	77 f8       	bld	r7, 7
    17e0:	70 94       	com	r7
    17e2:	c0 90 a1 01 	lds	r12, 0x01A1	; 0x8001a1 <EE+0x4>
    17e6:	d0 90 a2 01 	lds	r13, 0x01A2	; 0x8001a2 <EE+0x5>
    17ea:	e0 90 a3 01 	lds	r14, 0x01A3	; 0x8001a3 <EE+0x6>
    17ee:	f0 90 a4 01 	lds	r15, 0x01A4	; 0x8001a4 <EE+0x7>
    17f2:	f7 fa       	bst	r15, 7
    17f4:	f0 94       	com	r15
    17f6:	f7 f8       	bld	r15, 7
    17f8:	f0 94       	com	r15
	Vector2D f_r			= {u_r_mem[0],	u_r_mem[1]}; // Robot heading from input - TODO update with IMU / mocap / encoders
    17fa:	80 91 78 01 	lds	r24, 0x0178	; 0x800178 <u_r_mem>
    17fe:	90 91 79 01 	lds	r25, 0x0179	; 0x800179 <u_r_mem+0x1>
    1802:	a0 91 7a 01 	lds	r26, 0x017A	; 0x80017a <u_r_mem+0x2>
    1806:	b0 91 7b 01 	lds	r27, 0x017B	; 0x80017b <u_r_mem+0x3>
    180a:	89 83       	std	Y+1, r24	; 0x01
    180c:	9a 83       	std	Y+2, r25	; 0x02
    180e:	ab 83       	std	Y+3, r26	; 0x03
    1810:	bc 83       	std	Y+4, r27	; 0x04
    1812:	80 90 7c 01 	lds	r8, 0x017C	; 0x80017c <u_r_mem+0x4>
    1816:	90 90 7d 01 	lds	r9, 0x017D	; 0x80017d <u_r_mem+0x5>
    181a:	a0 90 7e 01 	lds	r10, 0x017E	; 0x80017e <u_r_mem+0x6>
    181e:	b0 90 7f 01 	lds	r11, 0x017F	; 0x80017f <u_r_mem+0x7>
	
	// Get angle of force and heading vectors w.r.t. +x axis
	float angle_f_r			= atan2f(f_r.y, f_r.x);
    1822:	9c 01       	movw	r18, r24
    1824:	ad 01       	movw	r20, r26
    1826:	c5 01       	movw	r24, r10
    1828:	b4 01       	movw	r22, r8
    182a:	2b d5       	rcall	.+2646   	; 0x2282 <atan2>
    182c:	6d 83       	std	Y+5, r22	; 0x05
    182e:	7e 83       	std	Y+6, r23	; 0x06
    1830:	8f 83       	std	Y+7, r24	; 0x07
    1832:	98 87       	std	Y+8, r25	; 0x08
	float angle_f_s			= atan2f(f_s.y, f_s.x);
    1834:	a3 01       	movw	r20, r6
    1836:	92 01       	movw	r18, r4
    1838:	c7 01       	movw	r24, r14
    183a:	b6 01       	movw	r22, r12
    183c:	22 d5       	rcall	.+2628   	; 0x2282 <atan2>
    183e:	69 87       	std	Y+9, r22	; 0x09
    1840:	7a 87       	std	Y+10, r23	; 0x0a
    1842:	8b 87       	std	Y+11, r24	; 0x0b
    1844:	9c 87       	std	Y+12, r25	; 0x0c
	
	//IDEA: CREATE AN ARRAY OR HISTORY OF 'SENSE' OR EVEN JUST ADD HISTORY (-1 + 1 + -1 + -1)=NEG SENSE
	
	
	// ALGORITHM EDGE CASE CATCHING
	if (f_s.y < -1.5)			// (mm) Retain heading when force is 'away' from robot (pulling payload)
    1846:	20 e0       	ldi	r18, 0x00	; 0
    1848:	30 e0       	ldi	r19, 0x00	; 0
    184a:	40 ec       	ldi	r20, 0xC0	; 192
    184c:	5f eb       	ldi	r21, 0xBF	; 191
    184e:	c7 01       	movw	r24, r14
    1850:	b6 01       	movw	r22, r12
    1852:	6a d5       	rcall	.+2772   	; 0x2328 <__cmpsf2>
    1854:	87 fd       	sbrc	r24, 7
    1856:	19 c0       	rjmp	.+50     	; 0x188a <loaSearch+0xec>
		return;
	if (sqrt(pow(f_s.x, 2) + pow(f_s.y, 2)) < 4) // Catch when force is minimal (for testing mainly)
    1858:	a3 01       	movw	r20, r6
    185a:	92 01       	movw	r18, r4
    185c:	c3 01       	movw	r24, r6
    185e:	b2 01       	movw	r22, r4
    1860:	73 d7       	rcall	.+3814   	; 0x2748 <__mulsf3>
    1862:	2b 01       	movw	r4, r22
    1864:	3c 01       	movw	r6, r24
    1866:	a7 01       	movw	r20, r14
    1868:	96 01       	movw	r18, r12
    186a:	c7 01       	movw	r24, r14
    186c:	b6 01       	movw	r22, r12
    186e:	6c d7       	rcall	.+3800   	; 0x2748 <__mulsf3>
    1870:	9b 01       	movw	r18, r22
    1872:	ac 01       	movw	r20, r24
    1874:	c3 01       	movw	r24, r6
    1876:	b2 01       	movw	r22, r4
    1878:	91 d4       	rcall	.+2338   	; 0x219c <__addsf3>
    187a:	f3 d7       	rcall	.+4070   	; 0x2862 <sqrt>
    187c:	20 e0       	ldi	r18, 0x00	; 0
    187e:	30 e0       	ldi	r19, 0x00	; 0
    1880:	40 e8       	ldi	r20, 0x80	; 128
    1882:	50 e4       	ldi	r21, 0x40	; 64
    1884:	51 d5       	rcall	.+2722   	; 0x2328 <__cmpsf2>
    1886:	87 ff       	sbrs	r24, 7
    1888:	15 c0       	rjmp	.+42     	; 0x18b4 <loaSearch+0x116>
	perturbation();
	
	// Assign motion memory to new motion command
	u_r_mem[0]			= u_r[1];
	u_r_mem[1]			= u_r[2];
}
    188a:	2c 96       	adiw	r28, 0x0c	; 12
    188c:	0f b6       	in	r0, 0x3f	; 63
    188e:	f8 94       	cli
    1890:	de bf       	out	0x3e, r29	; 62
    1892:	0f be       	out	0x3f, r0	; 63
    1894:	cd bf       	out	0x3d, r28	; 61
    1896:	df 91       	pop	r29
    1898:	cf 91       	pop	r28
    189a:	ff 90       	pop	r15
    189c:	ef 90       	pop	r14
    189e:	df 90       	pop	r13
    18a0:	cf 90       	pop	r12
    18a2:	bf 90       	pop	r11
    18a4:	af 90       	pop	r10
    18a6:	9f 90       	pop	r9
    18a8:	8f 90       	pop	r8
    18aa:	7f 90       	pop	r7
    18ac:	6f 90       	pop	r6
    18ae:	5f 90       	pop	r5
    18b0:	4f 90       	pop	r4
    18b2:	08 95       	ret
	
	// Get angle of force and heading vectors w.r.t. +x axis
	float angle_f_r			= atan2f(f_r.y, f_r.x);
	float angle_f_s			= atan2f(f_s.y, f_s.x);
	// Get rotation sense based on angle between motion and force feedback (-1 or 1 using RHR)
	float rot_amt			= (angle_f_s - 0.01) - angle_f_r; // -.02 TEMPORARY: SUBTRACT A SMALL ERROR CAUSE OF THE SENSOR BIAS TOWARDS THE RIGHT
    18b4:	2a e0       	ldi	r18, 0x0A	; 10
    18b6:	37 ed       	ldi	r19, 0xD7	; 215
    18b8:	43 e2       	ldi	r20, 0x23	; 35
    18ba:	5c e3       	ldi	r21, 0x3C	; 60
    18bc:	69 85       	ldd	r22, Y+9	; 0x09
    18be:	7a 85       	ldd	r23, Y+10	; 0x0a
    18c0:	8b 85       	ldd	r24, Y+11	; 0x0b
    18c2:	9c 85       	ldd	r25, Y+12	; 0x0c
    18c4:	6a d4       	rcall	.+2260   	; 0x219a <__subsf3>
    18c6:	2d 81       	ldd	r18, Y+5	; 0x05
    18c8:	3e 81       	ldd	r19, Y+6	; 0x06
    18ca:	4f 81       	ldd	r20, Y+7	; 0x07
    18cc:	58 85       	ldd	r21, Y+8	; 0x08
    18ce:	65 d4       	rcall	.+2250   	; 0x219a <__subsf3>
    18d0:	6b 01       	movw	r12, r22
	float rot_sense			= rot_amt / abs(rot_amt);
    18d2:	7c 01       	movw	r14, r24
    18d4:	98 d5       	rcall	.+2864   	; 0x2406 <__fixsfsi>
    18d6:	9b 01       	movw	r18, r22
    18d8:	77 fd       	sbrc	r23, 7
    18da:	e9 c0       	rjmp	.+466    	; 0x1aae <loaSearch+0x310>
    18dc:	b9 01       	movw	r22, r18
    18de:	33 0f       	add	r19, r19
    18e0:	88 0b       	sbc	r24, r24
    18e2:	99 0b       	sbc	r25, r25
    18e4:	c3 d5       	rcall	.+2950   	; 0x246c <__floatsisf>
    18e6:	2b 01       	movw	r4, r22
    18e8:	3c 01       	movw	r6, r24
	// ALGORITHM EDGE CASE CATCHING
	if (f_s.y < -1.5)			// (mm) Retain heading when force is 'away' from robot (pulling payload)
		return;
	if (sqrt(pow(f_s.x, 2) + pow(f_s.y, 2)) < 4) // Catch when force is minimal (for testing mainly)
		return;
	if (abs(rot_amt) < 0.03)	// 0.052=3deg (0.09 = 5deg) Catch when angle b/w motion & force minimal. Continue pushing (Sensor uncertainty)
    18ea:	2f e8       	ldi	r18, 0x8F	; 143
    18ec:	32 ec       	ldi	r19, 0xC2	; 194
    18ee:	45 ef       	ldi	r20, 0xF5	; 245
    18f0:	5c e3       	ldi	r21, 0x3C	; 60
    18f2:	1a d5       	rcall	.+2612   	; 0x2328 <__cmpsf2>
    18f4:	87 fd       	sbrc	r24, 7
    18f6:	c9 cf       	rjmp	.-110    	; 0x188a <loaSearch+0xec>
    18f8:	80 91 6e 01 	lds	r24, 0x016E	; 0x80016e <step>
		return;
	step++;						// Increment step counter 
    18fc:	90 91 6f 01 	lds	r25, 0x016F	; 0x80016f <step+0x1>
    1900:	01 96       	adiw	r24, 0x01	; 1
    1902:	90 93 6f 01 	sts	0x016F, r25	; 0x80016f <step+0x1>
    1906:	80 93 6e 01 	sts	0x016E, r24	; 0x80016e <step>
    190a:	65 e0       	ldi	r22, 0x05	; 5
	if (step % 5 != 0)			// Step counter to check stop condition every time step, but only update bounds every nth step
    190c:	70 e0       	ldi	r23, 0x00	; 0
    190e:	0e 94 b3 14 	call	0x2966	; 0x2966 <__divmodhi4>
    1912:	89 2b       	or	r24, r25
    1914:	09 f0       	breq	.+2      	; 0x1918 <loaSearch+0x17a>
    1916:	b9 cf       	rjmp	.-142    	; 0x188a <loaSearch+0xec>
		return;
	
	// Set new bounds based on rotation sense (make it a unit vector)
	float u_r_mag			= sqrt(pow(u_r_mem[0], 2) + pow(u_r_mem[1], 2));
    1918:	29 81       	ldd	r18, Y+1	; 0x01
    191a:	3a 81       	ldd	r19, Y+2	; 0x02
    191c:	4b 81       	ldd	r20, Y+3	; 0x03
    191e:	5c 81       	ldd	r21, Y+4	; 0x04
    1920:	ca 01       	movw	r24, r20
    1922:	b9 01       	movw	r22, r18
    1924:	11 d7       	rcall	.+3618   	; 0x2748 <__mulsf3>
    1926:	6d 83       	std	Y+5, r22	; 0x05
    1928:	7e 83       	std	Y+6, r23	; 0x06
    192a:	8f 83       	std	Y+7, r24	; 0x07
    192c:	98 87       	std	Y+8, r25	; 0x08
    192e:	a5 01       	movw	r20, r10
    1930:	94 01       	movw	r18, r8
    1932:	c5 01       	movw	r24, r10
    1934:	b4 01       	movw	r22, r8
    1936:	08 d7       	rcall	.+3600   	; 0x2748 <__mulsf3>
    1938:	9b 01       	movw	r18, r22
    193a:	ac 01       	movw	r20, r24
    193c:	6d 81       	ldd	r22, Y+5	; 0x05
    193e:	7e 81       	ldd	r23, Y+6	; 0x06
    1940:	8f 81       	ldd	r24, Y+7	; 0x07
    1942:	98 85       	ldd	r25, Y+8	; 0x08
    1944:	2b d4       	rcall	.+2134   	; 0x219c <__addsf3>
    1946:	8d d7       	rcall	.+3866   	; 0x2862 <sqrt>
    1948:	6d 83       	std	Y+5, r22	; 0x05
    194a:	7e 83       	std	Y+6, r23	; 0x06
    194c:	8f 83       	std	Y+7, r24	; 0x07
	if (rot_sense >= 0) {
    194e:	98 87       	std	Y+8, r25	; 0x08
    1950:	a3 01       	movw	r20, r6
    1952:	92 01       	movw	r18, r4
    1954:	c7 01       	movw	r24, r14
    1956:	b6 01       	movw	r22, r12
    1958:	ee d4       	rcall	.+2524   	; 0x2336 <__divsf3>
    195a:	20 e0       	ldi	r18, 0x00	; 0
    195c:	30 e0       	ldi	r19, 0x00	; 0
    195e:	a9 01       	movw	r20, r18
    1960:	ae d6       	rcall	.+3420   	; 0x26be <__gesf2>
		neg_bound.x			= u_r_mem[0] / u_r_mag;
    1962:	2d 81       	ldd	r18, Y+5	; 0x05
    1964:	3e 81       	ldd	r19, Y+6	; 0x06
    1966:	4f 81       	ldd	r20, Y+7	; 0x07
    1968:	58 85       	ldd	r21, Y+8	; 0x08
	if (step % 5 != 0)			// Step counter to check stop condition every time step, but only update bounds every nth step
		return;
	
	// Set new bounds based on rotation sense (make it a unit vector)
	float u_r_mag			= sqrt(pow(u_r_mem[0], 2) + pow(u_r_mem[1], 2));
	if (rot_sense >= 0) {
    196a:	87 fd       	sbrc	r24, 7
    196c:	a5 c0       	rjmp	.+330    	; 0x1ab8 <loaSearch+0x31a>
		neg_bound.x			= u_r_mem[0] / u_r_mag;
    196e:	69 81       	ldd	r22, Y+1	; 0x01
    1970:	7a 81       	ldd	r23, Y+2	; 0x02
    1972:	8b 81       	ldd	r24, Y+3	; 0x03
    1974:	9c 81       	ldd	r25, Y+4	; 0x04
    1976:	df d4       	rcall	.+2494   	; 0x2336 <__divsf3>
    1978:	69 83       	std	Y+1, r22	; 0x01
    197a:	7a 83       	std	Y+2, r23	; 0x02
    197c:	8b 83       	std	Y+3, r24	; 0x03
    197e:	9c 83       	std	Y+4, r25	; 0x04
    1980:	60 93 12 01 	sts	0x0112, r22	; 0x800112 <neg_bound>
    1984:	70 93 13 01 	sts	0x0113, r23	; 0x800113 <neg_bound+0x1>
    1988:	80 93 14 01 	sts	0x0114, r24	; 0x800114 <neg_bound+0x2>
    198c:	90 93 15 01 	sts	0x0115, r25	; 0x800115 <neg_bound+0x3>
		neg_bound.y			= u_r_mem[1] / u_r_mag;
    1990:	2d 81       	ldd	r18, Y+5	; 0x05
    1992:	3e 81       	ldd	r19, Y+6	; 0x06
    1994:	4f 81       	ldd	r20, Y+7	; 0x07
    1996:	58 85       	ldd	r21, Y+8	; 0x08
    1998:	c5 01       	movw	r24, r10
    199a:	b4 01       	movw	r22, r8
    199c:	cc d4       	rcall	.+2456   	; 0x2336 <__divsf3>
    199e:	2b 01       	movw	r4, r22
    19a0:	3c 01       	movw	r6, r24
    19a2:	60 93 16 01 	sts	0x0116, r22	; 0x800116 <neg_bound+0x4>
    19a6:	70 93 17 01 	sts	0x0117, r23	; 0x800117 <neg_bound+0x5>
    19aa:	80 93 18 01 	sts	0x0118, r24	; 0x800118 <neg_bound+0x6>
    19ae:	90 93 19 01 	sts	0x0119, r25	; 0x800119 <neg_bound+0x7>
    19b2:	c0 90 0a 01 	lds	r12, 0x010A	; 0x80010a <pos_bound>
    19b6:	d0 90 0b 01 	lds	r13, 0x010B	; 0x80010b <pos_bound+0x1>
    19ba:	e0 90 0c 01 	lds	r14, 0x010C	; 0x80010c <pos_bound+0x2>
    19be:	f0 90 0d 01 	lds	r15, 0x010D	; 0x80010d <pos_bound+0x3>
    19c2:	80 90 0e 01 	lds	r8, 0x010E	; 0x80010e <pos_bound+0x4>
    19c6:	90 90 0f 01 	lds	r9, 0x010F	; 0x80010f <pos_bound+0x5>
    19ca:	a0 90 10 01 	lds	r10, 0x0110	; 0x800110 <pos_bound+0x6>
    19ce:	b0 90 11 01 	lds	r11, 0x0111	; 0x800111 <pos_bound+0x7>
		pos_bound.x			= u_r_mem[0] / u_r_mag;
		pos_bound.y			= u_r_mem[1] / u_r_mag;
	}
	
	// Get new push direction by summing bounds (same as bisecting)
	float output_x			= pos_bound.x + neg_bound.x;
    19d2:	29 81       	ldd	r18, Y+1	; 0x01
    19d4:	3a 81       	ldd	r19, Y+2	; 0x02
    19d6:	4b 81       	ldd	r20, Y+3	; 0x03
    19d8:	5c 81       	ldd	r21, Y+4	; 0x04
    19da:	c7 01       	movw	r24, r14
    19dc:	b6 01       	movw	r22, r12
    19de:	de d3       	rcall	.+1980   	; 0x219c <__addsf3>
	float output_y			= pos_bound.y + neg_bound.y;
    19e0:	6b 01       	movw	r12, r22
    19e2:	7c 01       	movw	r14, r24
    19e4:	a3 01       	movw	r20, r6
    19e6:	92 01       	movw	r18, r4
    19e8:	c5 01       	movw	r24, r10
    19ea:	b4 01       	movw	r22, r8
	// Make unit vector and apply desired velocity simultaneously
	float output_mag		= sqrt(pow(output_x, 2) + pow(output_y, 2));
    19ec:	d7 d3       	rcall	.+1966   	; 0x219c <__addsf3>
    19ee:	4b 01       	movw	r8, r22
    19f0:	5c 01       	movw	r10, r24
    19f2:	a7 01       	movw	r20, r14
    19f4:	96 01       	movw	r18, r12
    19f6:	c7 01       	movw	r24, r14
    19f8:	b6 01       	movw	r22, r12
    19fa:	a6 d6       	rcall	.+3404   	; 0x2748 <__mulsf3>
    19fc:	2b 01       	movw	r4, r22
    19fe:	3c 01       	movw	r6, r24
    1a00:	a5 01       	movw	r20, r10
    1a02:	94 01       	movw	r18, r8
    1a04:	c5 01       	movw	r24, r10
    1a06:	b4 01       	movw	r22, r8
    1a08:	9f d6       	rcall	.+3390   	; 0x2748 <__mulsf3>
    1a0a:	9b 01       	movw	r18, r22
    1a0c:	ac 01       	movw	r20, r24
    1a0e:	c3 01       	movw	r24, r6
    1a10:	b2 01       	movw	r22, r4
    1a12:	c4 d3       	rcall	.+1928   	; 0x219c <__addsf3>
    1a14:	26 d7       	rcall	.+3660   	; 0x2862 <sqrt>
	output_x				*= (desired_vel/output_mag);
    1a16:	2b 01       	movw	r4, r22
    1a18:	3c 01       	movw	r6, r24
    1a1a:	60 91 08 01 	lds	r22, 0x0108	; 0x800108 <desired_vel>
    1a1e:	70 91 09 01 	lds	r23, 0x0109	; 0x800109 <desired_vel+0x1>
    1a22:	07 2e       	mov	r0, r23
    1a24:	00 0c       	add	r0, r0
    1a26:	88 0b       	sbc	r24, r24
    1a28:	99 0b       	sbc	r25, r25
    1a2a:	20 d5       	rcall	.+2624   	; 0x246c <__floatsisf>
    1a2c:	a3 01       	movw	r20, r6
    1a2e:	92 01       	movw	r18, r4
    1a30:	82 d4       	rcall	.+2308   	; 0x2336 <__divsf3>
    1a32:	2b 01       	movw	r4, r22
	output_y				*= (desired_vel/output_mag);
	
	// ==== Assign to Control Input Array ====
	u_r[1]					= output_x;
    1a34:	3c 01       	movw	r6, r24
    1a36:	9b 01       	movw	r18, r22
    1a38:	ac 01       	movw	r20, r24
    1a3a:	c7 01       	movw	r24, r14
    1a3c:	b6 01       	movw	r22, r12
    1a3e:	84 d6       	rcall	.+3336   	; 0x2748 <__mulsf3>
    1a40:	60 93 84 01 	sts	0x0184, r22	; 0x800184 <u_r+0x4>
    1a44:	70 93 85 01 	sts	0x0185, r23	; 0x800185 <u_r+0x5>
    1a48:	80 93 86 01 	sts	0x0186, r24	; 0x800186 <u_r+0x6>
    1a4c:	90 93 87 01 	sts	0x0187, r25	; 0x800187 <u_r+0x7>
	u_r[2]					= output_y;
    1a50:	a3 01       	movw	r20, r6
    1a52:	92 01       	movw	r18, r4
    1a54:	c5 01       	movw	r24, r10
    1a56:	b4 01       	movw	r22, r8
    1a58:	77 d6       	rcall	.+3310   	; 0x2748 <__mulsf3>
    1a5a:	60 93 88 01 	sts	0x0188, r22	; 0x800188 <u_r+0x8>
    1a5e:	70 93 89 01 	sts	0x0189, r23	; 0x800189 <u_r+0x9>
    1a62:	80 93 8a 01 	sts	0x018A, r24	; 0x80018a <u_r+0xa>
    1a66:	90 93 8b 01 	sts	0x018B, r25	; 0x80018b <u_r+0xb>
    1a6a:	b4 dd       	rcall	.-1176   	; 0x15d4 <perturbation>
	
	// == TEMP - Add a perturbation to u_r ==
	perturbation();
    1a6c:	80 91 84 01 	lds	r24, 0x0184	; 0x800184 <u_r+0x4>
	
	// Assign motion memory to new motion command
	u_r_mem[0]			= u_r[1];
    1a70:	90 91 85 01 	lds	r25, 0x0185	; 0x800185 <u_r+0x5>
    1a74:	a0 91 86 01 	lds	r26, 0x0186	; 0x800186 <u_r+0x6>
    1a78:	b0 91 87 01 	lds	r27, 0x0187	; 0x800187 <u_r+0x7>
    1a7c:	80 93 78 01 	sts	0x0178, r24	; 0x800178 <u_r_mem>
    1a80:	90 93 79 01 	sts	0x0179, r25	; 0x800179 <u_r_mem+0x1>
    1a84:	a0 93 7a 01 	sts	0x017A, r26	; 0x80017a <u_r_mem+0x2>
    1a88:	b0 93 7b 01 	sts	0x017B, r27	; 0x80017b <u_r_mem+0x3>
    1a8c:	80 91 88 01 	lds	r24, 0x0188	; 0x800188 <u_r+0x8>
	u_r_mem[1]			= u_r[2];
    1a90:	90 91 89 01 	lds	r25, 0x0189	; 0x800189 <u_r+0x9>
    1a94:	a0 91 8a 01 	lds	r26, 0x018A	; 0x80018a <u_r+0xa>
    1a98:	b0 91 8b 01 	lds	r27, 0x018B	; 0x80018b <u_r+0xb>
    1a9c:	80 93 7c 01 	sts	0x017C, r24	; 0x80017c <u_r_mem+0x4>
    1aa0:	90 93 7d 01 	sts	0x017D, r25	; 0x80017d <u_r_mem+0x5>
    1aa4:	a0 93 7e 01 	sts	0x017E, r26	; 0x80017e <u_r_mem+0x6>
    1aa8:	b0 93 7f 01 	sts	0x017F, r27	; 0x80017f <u_r_mem+0x7>
    1aac:	ee ce       	rjmp	.-548    	; 0x188a <loaSearch+0xec>
	// Get angle of force and heading vectors w.r.t. +x axis
	float angle_f_r			= atan2f(f_r.y, f_r.x);
	float angle_f_s			= atan2f(f_s.y, f_s.x);
	// Get rotation sense based on angle between motion and force feedback (-1 or 1 using RHR)
	float rot_amt			= (angle_f_s - 0.01) - angle_f_r; // -.02 TEMPORARY: SUBTRACT A SMALL ERROR CAUSE OF THE SENSOR BIAS TOWARDS THE RIGHT
	float rot_sense			= rot_amt / abs(rot_amt);
    1aae:	22 27       	eor	r18, r18
    1ab0:	33 27       	eor	r19, r19
    1ab2:	26 1b       	sub	r18, r22
    1ab4:	37 0b       	sbc	r19, r23
    1ab6:	12 cf       	rjmp	.-476    	; 0x18dc <loaSearch+0x13e>
	if (rot_sense >= 0) {
		neg_bound.x			= u_r_mem[0] / u_r_mag;
		neg_bound.y			= u_r_mem[1] / u_r_mag;
	}
	else {
		pos_bound.x			= u_r_mem[0] / u_r_mag;
    1ab8:	69 81       	ldd	r22, Y+1	; 0x01
    1aba:	7a 81       	ldd	r23, Y+2	; 0x02
    1abc:	8b 81       	ldd	r24, Y+3	; 0x03
    1abe:	9c 81       	ldd	r25, Y+4	; 0x04
    1ac0:	3a d4       	rcall	.+2164   	; 0x2336 <__divsf3>
    1ac2:	6b 01       	movw	r12, r22
    1ac4:	7c 01       	movw	r14, r24
    1ac6:	60 93 0a 01 	sts	0x010A, r22	; 0x80010a <pos_bound>
    1aca:	70 93 0b 01 	sts	0x010B, r23	; 0x80010b <pos_bound+0x1>
    1ace:	80 93 0c 01 	sts	0x010C, r24	; 0x80010c <pos_bound+0x2>
    1ad2:	90 93 0d 01 	sts	0x010D, r25	; 0x80010d <pos_bound+0x3>
    1ad6:	2d 81       	ldd	r18, Y+5	; 0x05
		pos_bound.y			= u_r_mem[1] / u_r_mag;
    1ad8:	3e 81       	ldd	r19, Y+6	; 0x06
    1ada:	4f 81       	ldd	r20, Y+7	; 0x07
    1adc:	58 85       	ldd	r21, Y+8	; 0x08
    1ade:	c5 01       	movw	r24, r10
    1ae0:	b4 01       	movw	r22, r8
    1ae2:	29 d4       	rcall	.+2130   	; 0x2336 <__divsf3>
    1ae4:	4b 01       	movw	r8, r22
    1ae6:	5c 01       	movw	r10, r24
    1ae8:	60 93 0e 01 	sts	0x010E, r22	; 0x80010e <pos_bound+0x4>
    1aec:	70 93 0f 01 	sts	0x010F, r23	; 0x80010f <pos_bound+0x5>
    1af0:	80 93 10 01 	sts	0x0110, r24	; 0x800110 <pos_bound+0x6>
    1af4:	90 93 11 01 	sts	0x0111, r25	; 0x800111 <pos_bound+0x7>
    1af8:	80 91 12 01 	lds	r24, 0x0112	; 0x800112 <neg_bound>
    1afc:	90 91 13 01 	lds	r25, 0x0113	; 0x800113 <neg_bound+0x1>
    1b00:	a0 91 14 01 	lds	r26, 0x0114	; 0x800114 <neg_bound+0x2>
    1b04:	b0 91 15 01 	lds	r27, 0x0115	; 0x800115 <neg_bound+0x3>
    1b08:	89 83       	std	Y+1, r24	; 0x01
    1b0a:	9a 83       	std	Y+2, r25	; 0x02
    1b0c:	ab 83       	std	Y+3, r26	; 0x03
    1b0e:	bc 83       	std	Y+4, r27	; 0x04
    1b10:	40 90 16 01 	lds	r4, 0x0116	; 0x800116 <neg_bound+0x4>
    1b14:	50 90 17 01 	lds	r5, 0x0117	; 0x800117 <neg_bound+0x5>
    1b18:	60 90 18 01 	lds	r6, 0x0118	; 0x800118 <neg_bound+0x6>
    1b1c:	70 90 19 01 	lds	r7, 0x0119	; 0x800119 <neg_bound+0x7>
    1b20:	58 cf       	rjmp	.-336    	; 0x19d2 <loaSearch+0x234>

00001b22 <main>:
    1b22:	2f 92       	push	r2
    1b24:	3f 92       	push	r3
}

//================================================================================================
//************************************       MAIN       ******************************************
//================================================================================================
int main(void){
    1b26:	4f 92       	push	r4
    1b28:	5f 92       	push	r5
    1b2a:	6f 92       	push	r6
    1b2c:	7f 92       	push	r7
    1b2e:	8f 92       	push	r8
    1b30:	9f 92       	push	r9
    1b32:	af 92       	push	r10
    1b34:	bf 92       	push	r11
    1b36:	cf 92       	push	r12
    1b38:	df 92       	push	r13
    1b3a:	ef 92       	push	r14
    1b3c:	ff 92       	push	r15
    1b3e:	0f 93       	push	r16
    1b40:	1f 93       	push	r17
    1b42:	cf 93       	push	r28
    1b44:	df 93       	push	r29
    1b46:	cd b7       	in	r28, 0x3d	; 61
    1b48:	de b7       	in	r29, 0x3e	; 62
    1b4a:	68 97       	sbiw	r28, 0x18	; 24
    1b4c:	0f b6       	in	r0, 0x3f	; 63
    1b4e:	f8 94       	cli
    1b50:	de bf       	out	0x3e, r29	; 62
    1b52:	0f be       	out	0x3f, r0	; 63
    1b54:	cd bf       	out	0x3d, r28	; 61
	mC_init();					// Initialize micro controller
    1b56:	0e 94 26 01 	call	0x24c	; 0x24c <mC_init>

	// Initialize TWI module for slave operation. Include address and/or enable General Call
	TWI_Slave_Initialise((unsigned char)((0x08<<TWI_ADR_BITS) | (TRUE<<TWI_GEN_BIT) )); // TRUE
    1b5a:	81 e1       	ldi	r24, 0x11	; 17
    1b5c:	36 d2       	rcall	.+1132   	; 0x1fca <TWI_Slave_Initialise>
	sei();						// Enable global interrupts
	TWI_Start_Transceiver();	// Enable reception of first command from master
    1b5e:	78 94       	sei
    1b60:	46 d2       	rcall	.+1164   	; 0x1fee <TWI_Start_Transceiver>
		
	// Start timer3 (unused?)
	TCNT3H = 0;
    1b62:	10 92 95 00 	sts	0x0095, r1	; 0x800095 <__TEXT_REGION_LENGTH__+0x7e0095>
	TCNT3L = 0;
    1b66:	10 92 94 00 	sts	0x0094, r1	; 0x800094 <__TEXT_REGION_LENGTH__+0x7e0094>
	TIMSK3 |= (1<<TOIE3);		// Enable Timer3 overflow interrupt - ChatGPT advised
    1b6a:	80 91 71 00 	lds	r24, 0x0071	; 0x800071 <__TEXT_REGION_LENGTH__+0x7e0071>
    1b6e:	81 60       	ori	r24, 0x01	; 1
    1b70:	80 93 71 00 	sts	0x0071, r24	; 0x800071 <__TEXT_REGION_LENGTH__+0x7e0071>
	PORTC |= BIT(redLED);		// Turn ON redLED
    1b74:	47 9a       	sbi	0x08, 7	; 8
	PORTC &= ~BIT(blueLED);		// Turn OFF blueLED
    1b76:	46 98       	cbi	0x08, 6	; 8
	
	getHome();					// Get force sensor home position and assign to 'home'
    1b78:	0e 94 1f 05 	call	0xa3e	; 0xa3e <getHome>
	srand(time(NULL));				// Set the seed for rng
    1b7c:	80 e0       	ldi	r24, 0x00	; 0
    1b7e:	90 e0       	ldi	r25, 0x00	; 0
    1b80:	0e 94 a0 00 	call	0x140	; 0x140 <time>
    1b84:	cb 01       	movw	r24, r22
    1b86:	9e d7       	rcall	.+3900   	; 0x2ac4 <srand>
}

//		PID initialization function
//========================================================================
void PID_Init(PIDController* pid, double Kp, double Ki, double Kd, double setPoint) {
	pid->Kp = Kp;
    1b88:	80 e0       	ldi	r24, 0x00	; 0
    1b8a:	90 e0       	ldi	r25, 0x00	; 0
    1b8c:	a0 ea       	ldi	r26, 0xA0	; 160
    1b8e:	bf e3       	ldi	r27, 0x3F	; 63
    1b90:	89 83       	std	Y+1, r24	; 0x01
    1b92:	9a 83       	std	Y+2, r25	; 0x02
    1b94:	ab 83       	std	Y+3, r26	; 0x03
    1b96:	bc 83       	std	Y+4, r27	; 0x04
	pid->Ki = Ki;
    1b98:	8d ec       	ldi	r24, 0xCD	; 205
    1b9a:	9c ec       	ldi	r25, 0xCC	; 204
    1b9c:	ac e4       	ldi	r26, 0x4C	; 76
    1b9e:	bd e3       	ldi	r27, 0x3D	; 61
    1ba0:	8d 83       	std	Y+5, r24	; 0x05
    1ba2:	9e 83       	std	Y+6, r25	; 0x06
    1ba4:	af 83       	std	Y+7, r26	; 0x07
    1ba6:	b8 87       	std	Y+8, r27	; 0x08
	pid->Kd = Kd;
    1ba8:	8d ec       	ldi	r24, 0xCD	; 205
    1baa:	9c ec       	ldi	r25, 0xCC	; 204
    1bac:	ac e4       	ldi	r26, 0x4C	; 76
    1bae:	be e3       	ldi	r27, 0x3E	; 62
    1bb0:	89 87       	std	Y+9, r24	; 0x09
    1bb2:	9a 87       	std	Y+10, r25	; 0x0a
    1bb4:	ab 87       	std	Y+11, r26	; 0x0b
    1bb6:	bc 87       	std	Y+12, r27	; 0x0c
	pid->integral = 0.0;
    1bb8:	1d 86       	std	Y+13, r1	; 0x0d
    1bba:	1e 86       	std	Y+14, r1	; 0x0e
    1bbc:	1f 86       	std	Y+15, r1	; 0x0f
    1bbe:	18 8a       	std	Y+16, r1	; 0x10
	pid->prevError = 0.0;
    1bc0:	19 8a       	std	Y+17, r1	; 0x11
    1bc2:	1a 8a       	std	Y+18, r1	; 0x12
    1bc4:	1b 8a       	std	Y+19, r1	; 0x13
    1bc6:	1c 8a       	std	Y+20, r1	; 0x14
	pid->setPoint = setPoint;
    1bc8:	80 e0       	ldi	r24, 0x00	; 0
    1bca:	90 e0       	ldi	r25, 0x00	; 0
    1bcc:	a4 e3       	ldi	r26, 0x34	; 52
    1bce:	b3 e4       	ldi	r27, 0x43	; 67
    1bd0:	8d 8b       	std	Y+21, r24	; 0x15
    1bd2:	9e 8b       	std	Y+22, r25	; 0x16
    1bd4:	af 8b       	std	Y+23, r26	; 0x17
    1bd6:	b8 8f       	std	Y+24, r27	; 0x18
	int iii = 0;				// iterator
    1bd8:	00 e0       	ldi	r16, 0x00	; 0
    1bda:	10 e0       	ldi	r17, 0x00	; 0
			
			rot_mem = i2c_data;
			
			// END EXPERIMENT
			if (stop_counter >= 40 || STOP_SWITCH == 1){			// Check for STOP condition
				STOP_SWITCH	= 1;				// Enable global stop
    1bdc:	22 24       	eor	r2, r2
    1bde:	23 94       	inc	r2
    1be0:	31 2c       	mov	r3, r1
				iii ++;
				u_r[2]			= u_r_mem[1] = desired_vel;	// Induce motion and set initial 'memory' as 'forward'
				u_r_mem[0]		= 0;
				sendMotor(); 
				stop_counter	= 0;			// Reset stop counter for multiple trials w/o restarting robot
				neg_bound.x		= 1;			
    1be2:	41 2c       	mov	r4, r1
    1be4:	51 2c       	mov	r5, r1
    1be6:	90 e8       	ldi	r25, 0x80	; 128
    1be8:	69 2e       	mov	r6, r25
    1bea:	9f e3       	ldi	r25, 0x3F	; 63
    1bec:	79 2e       	mov	r7, r25
				pos_bound.x		= -1;			
    1bee:	81 2c       	mov	r8, r1
    1bf0:	91 2c       	mov	r9, r1
    1bf2:	20 e8       	ldi	r18, 0x80	; 128
    1bf4:	a2 2e       	mov	r10, r18
    1bf6:	2f eb       	ldi	r18, 0xBF	; 191
    1bf8:	b2 2e       	mov	r11, r18
				neg_bound.y		= pos_bound.y = 0.0001;		// Reset bounds
    1bfa:	37 e1       	ldi	r19, 0x17	; 23
    1bfc:	c3 2e       	mov	r12, r19
    1bfe:	37 eb       	ldi	r19, 0xB7	; 183
    1c00:	d3 2e       	mov	r13, r19
    1c02:	31 ed       	ldi	r19, 0xD1	; 209
    1c04:	e3 2e       	mov	r14, r19
    1c06:	38 e3       	ldi	r19, 0x38	; 56
    1c08:	f3 2e       	mov	r15, r19
	//PID_Init(&pid_com, 1, 0, 0.08, 0); // 0.8, 0, 0.08 for 6 // 1, 0, 0 works OK but maybe too aggressive (it's immediately changing direction towards force feedback)
	PID_Init(&pid_att, 1.25, 0.05, 0.2, 180); // 1.25, 0.05, 0.2 is critically damped for robot 5


	// ========== PRIMARY LOOP ==========
	while(start == 0){
    1c0a:	80 91 94 01 	lds	r24, 0x0194	; 0x800194 <start>
    1c0e:	81 11       	cpse	r24, r1
		runTWI();				// Run all i2c communications (receive camera info)
    1c10:	02 c1       	rjmp	.+516    	; 0x1e16 <main+0x2f4>
    1c12:	bb db       	rcall	.-2186   	; 0x138a <runTWI>
		sensorKinematics();		// Force feedback, assigned to EE var
    1c14:	a5 d8       	rcall	.-3766   	; 0xd60 <sensorKinematics>
    1c16:	80 91 92 01 	lds	r24, 0x0192	; 0x800192 <mode_switch>
		

		if (mode_switch) {						// Defaults to FALSE. Switch mode via MATLAB
    1c1a:	90 91 93 01 	lds	r25, 0x0193	; 0x800193 <mode_switch+0x1>
    1c1e:	89 2b       	or	r24, r25
    1c20:	09 f4       	brne	.+2      	; 0x1c24 <main+0x102>
    1c22:	17 c1       	rjmp	.+558    	; 0x1e52 <main+0x330>
    1c24:	01 32       	cpi	r16, 0x21	; 33
			while (iii <= 800){
    1c26:	23 e0       	ldi	r18, 0x03	; 3
    1c28:	12 07       	cpc	r17, r18
    1c2a:	0c f0       	brlt	.+2      	; 0x1c2e <main+0x10c>
    1c2c:	6d c0       	rjmp	.+218    	; 0x1d08 <main+0x1e6>
    1c2e:	0f 5f       	subi	r16, 0xFF	; 255
				iii ++;
    1c30:	1f 4f       	sbci	r17, 0xFF	; 255
    1c32:	60 91 08 01 	lds	r22, 0x0108	; 0x800108 <desired_vel>
				u_r[2]			= u_r_mem[1] = desired_vel;	// Induce motion and set initial 'memory' as 'forward'
    1c36:	70 91 09 01 	lds	r23, 0x0109	; 0x800109 <desired_vel+0x1>
    1c3a:	07 2e       	mov	r0, r23
    1c3c:	00 0c       	add	r0, r0
    1c3e:	88 0b       	sbc	r24, r24
    1c40:	99 0b       	sbc	r25, r25
    1c42:	14 d4       	rcall	.+2088   	; 0x246c <__floatsisf>
    1c44:	60 93 7c 01 	sts	0x017C, r22	; 0x80017c <u_r_mem+0x4>
    1c48:	70 93 7d 01 	sts	0x017D, r23	; 0x80017d <u_r_mem+0x5>
    1c4c:	80 93 7e 01 	sts	0x017E, r24	; 0x80017e <u_r_mem+0x6>
    1c50:	90 93 7f 01 	sts	0x017F, r25	; 0x80017f <u_r_mem+0x7>
    1c54:	60 93 88 01 	sts	0x0188, r22	; 0x800188 <u_r+0x8>
    1c58:	70 93 89 01 	sts	0x0189, r23	; 0x800189 <u_r+0x9>
    1c5c:	80 93 8a 01 	sts	0x018A, r24	; 0x80018a <u_r+0xa>
    1c60:	90 93 8b 01 	sts	0x018B, r25	; 0x80018b <u_r+0xb>
    1c64:	10 92 78 01 	sts	0x0178, r1	; 0x800178 <u_r_mem>
				u_r_mem[0]		= 0;
    1c68:	10 92 79 01 	sts	0x0179, r1	; 0x800179 <u_r_mem+0x1>
    1c6c:	10 92 7a 01 	sts	0x017A, r1	; 0x80017a <u_r_mem+0x2>
    1c70:	10 92 7b 01 	sts	0x017B, r1	; 0x80017b <u_r_mem+0x3>
				sendMotor(); 
    1c74:	af db       	rcall	.-2210   	; 0x13d4 <sendMotor>
    1c76:	10 92 73 01 	sts	0x0173, r1	; 0x800173 <stop_counter+0x1>
				stop_counter	= 0;			// Reset stop counter for multiple trials w/o restarting robot
    1c7a:	10 92 72 01 	sts	0x0172, r1	; 0x800172 <stop_counter>
    1c7e:	40 92 12 01 	sts	0x0112, r4	; 0x800112 <neg_bound>
				neg_bound.x		= 1;			
    1c82:	50 92 13 01 	sts	0x0113, r5	; 0x800113 <neg_bound+0x1>
    1c86:	60 92 14 01 	sts	0x0114, r6	; 0x800114 <neg_bound+0x2>
    1c8a:	70 92 15 01 	sts	0x0115, r7	; 0x800115 <neg_bound+0x3>
    1c8e:	80 92 0a 01 	sts	0x010A, r8	; 0x80010a <pos_bound>
				pos_bound.x		= -1;			
    1c92:	90 92 0b 01 	sts	0x010B, r9	; 0x80010b <pos_bound+0x1>
    1c96:	a0 92 0c 01 	sts	0x010C, r10	; 0x80010c <pos_bound+0x2>
    1c9a:	b0 92 0d 01 	sts	0x010D, r11	; 0x80010d <pos_bound+0x3>
    1c9e:	c0 92 0e 01 	sts	0x010E, r12	; 0x80010e <pos_bound+0x4>
				neg_bound.y		= pos_bound.y = 0.0001;		// Reset bounds
    1ca2:	d0 92 0f 01 	sts	0x010F, r13	; 0x80010f <pos_bound+0x5>
    1ca6:	e0 92 10 01 	sts	0x0110, r14	; 0x800110 <pos_bound+0x6>
    1caa:	f0 92 11 01 	sts	0x0111, r15	; 0x800111 <pos_bound+0x7>
    1cae:	c0 92 16 01 	sts	0x0116, r12	; 0x800116 <neg_bound+0x4>
    1cb2:	d0 92 17 01 	sts	0x0117, r13	; 0x800117 <neg_bound+0x5>
    1cb6:	e0 92 18 01 	sts	0x0118, r14	; 0x800118 <neg_bound+0x6>
    1cba:	f0 92 19 01 	sts	0x0119, r15	; 0x800119 <neg_bound+0x7>
    1cbe:	10 92 74 01 	sts	0x0174, r1	; 0x800174 <rot_mem>
				rot_mem			= 0;
    1cc2:	10 92 75 01 	sts	0x0175, r1	; 0x800175 <rot_mem+0x1>
    1cc6:	10 92 76 01 	sts	0x0176, r1	; 0x800176 <rot_mem+0x2>
    1cca:	10 92 77 01 	sts	0x0177, r1	; 0x800177 <rot_mem+0x3>
    1cce:	10 92 6b 01 	sts	0x016B, r1	; 0x80016b <__data_end+0x1>
				STOP_SWITCH		= 0;			// Reset global stop
    1cd2:	10 92 6a 01 	sts	0x016A, r1	; 0x80016a <__data_end>
    1cd6:	10 92 6d 01 	sts	0x016D, r1	; 0x80016d <att_switch+0x1>
				att_switch		= 0;
    1cda:	10 92 6c 01 	sts	0x016C, r1	; 0x80016c <att_switch>
    1cde:	80 e0       	ldi	r24, 0x00	; 0
				temp_mem		= 180;
    1ce0:	90 e0       	ldi	r25, 0x00	; 0
    1ce2:	a4 e3       	ldi	r26, 0x34	; 52
    1ce4:	b3 e4       	ldi	r27, 0x43	; 67
    1ce6:	80 93 04 01 	sts	0x0104, r24	; 0x800104 <temp_mem>
    1cea:	90 93 05 01 	sts	0x0105, r25	; 0x800105 <temp_mem+0x1>
    1cee:	a0 93 06 01 	sts	0x0106, r26	; 0x800106 <temp_mem+0x2>
    1cf2:	b0 93 07 01 	sts	0x0107, r27	; 0x800107 <temp_mem+0x3>
    1cf6:	10 92 6f 01 	sts	0x016F, r1	; 0x80016f <step+0x1>
				step			= 0;
    1cfa:	10 92 6e 01 	sts	0x016E, r1	; 0x80016e <step>
    1cfe:	01 32       	cpi	r16, 0x21	; 33
		runTWI();				// Run all i2c communications (receive camera info)
		sensorKinematics();		// Force feedback, assigned to EE var
		

		if (mode_switch) {						// Defaults to FALSE. Switch mode via MATLAB
			while (iii <= 800){
    1d00:	93 e0       	ldi	r25, 0x03	; 3
    1d02:	19 07       	cpc	r17, r25
    1d04:	09 f0       	breq	.+2      	; 0x1d08 <main+0x1e6>
    1d06:	93 cf       	rjmp	.-218    	; 0x1c2e <main+0x10c>
    1d08:	80 91 3e 01 	lds	r24, 0x013E	; 0x80013e <i2c_data>


			//  === Want to do EITHER LoA search OR correct attitude ===
			
			// If wheel about to collide, activate attitude control
			if (i2c_data <= STOP_LOWER || i2c_data >= STOP_UPPER) {
    1d0c:	90 91 3f 01 	lds	r25, 0x013F	; 0x80013f <i2c_data+0x1>
    1d10:	87 3a       	cpi	r24, 0xA7	; 167
    1d12:	91 05       	cpc	r25, r1
    1d14:	0c f4       	brge	.+2      	; 0x1d18 <main+0x1f6>
    1d16:	b0 c0       	rjmp	.+352    	; 0x1e78 <main+0x356>
    1d18:	80 91 3e 01 	lds	r24, 0x013E	; 0x80013e <i2c_data>
    1d1c:	90 91 3f 01 	lds	r25, 0x013F	; 0x80013f <i2c_data+0x1>
    1d20:	82 3c       	cpi	r24, 0xC2	; 194
    1d22:	91 05       	cpc	r25, r1
    1d24:	0c f0       	brlt	.+2      	; 0x1d28 <main+0x206>
    1d26:	a8 c0       	rjmp	.+336    	; 0x1e78 <main+0x356>
    1d28:	80 91 3e 01 	lds	r24, 0x013E	; 0x80013e <i2c_data>
				att_switch = 1; // Turn ON attitude control, stop LoA search
				u_r[1] = 0;
				u_r[2] = 0;
			}
			if (i2c_data >= 170  && i2c_data <= 190){ // 179 and 181 If attitude control is done turn OFF attitude control switch
    1d2c:	90 91 3f 01 	lds	r25, 0x013F	; 0x80013f <i2c_data+0x1>
    1d30:	8a 3a       	cpi	r24, 0xAA	; 170
    1d32:	91 05       	cpc	r25, r1
    1d34:	44 f0       	brlt	.+16     	; 0x1d46 <main+0x224>
    1d36:	80 91 3e 01 	lds	r24, 0x013E	; 0x80013e <i2c_data>
    1d3a:	90 91 3f 01 	lds	r25, 0x013F	; 0x80013f <i2c_data+0x1>
    1d3e:	8f 3b       	cpi	r24, 0xBF	; 191
    1d40:	91 05       	cpc	r25, r1
    1d42:	0c f4       	brge	.+2      	; 0x1d46 <main+0x224>
    1d44:	bd c0       	rjmp	.+378    	; 0x1ec0 <main+0x39e>
    1d46:	80 91 6c 01 	lds	r24, 0x016C	; 0x80016c <att_switch>
				u_r[1] = u_r_mem[0]; // Resume prior motion
				u_r[2] = u_r_mem[1];
			}
			
			// Attitude control switching
			if (att_switch) {
    1d4a:	90 91 6d 01 	lds	r25, 0x016D	; 0x80016d <att_switch+0x1>
    1d4e:	89 2b       	or	r24, r25
    1d50:	09 f0       	breq	.+2      	; 0x1d54 <main+0x232>
				correctAttitude(&pid_att);
				// STOP CONDITION RESET
				stop_counter = 0;
			}
			else {
				loaSearch();
    1d52:	14 c1       	rjmp	.+552    	; 0x1f7c <main+0x45a>
    1d54:	24 dd       	rcall	.-1464   	; 0x179e <loaSearch>
				correctAttitude(&pid_att);
    1d56:	ce 01       	movw	r24, r28
    1d58:	01 96       	adiw	r24, 0x01	; 1
    1d5a:	b0 dc       	rcall	.-1696   	; 0x16bc <correctAttitude>
    1d5c:	60 91 3e 01 	lds	r22, 0x013E	; 0x80013e <i2c_data>
				// STOP CONDITION CHECK
				if (abs(i2c_data - rot_mem) < 0.052) //10 deg // 0.09=5 degrees  // .052 = 3 degrees // Increment if payload vs robot orientation small rate of change
    1d60:	70 91 3f 01 	lds	r23, 0x013F	; 0x80013f <i2c_data+0x1>
    1d64:	07 2e       	mov	r0, r23
    1d66:	00 0c       	add	r0, r0
    1d68:	88 0b       	sbc	r24, r24
    1d6a:	99 0b       	sbc	r25, r25
    1d6c:	7f d3       	rcall	.+1790   	; 0x246c <__floatsisf>
    1d6e:	20 91 74 01 	lds	r18, 0x0174	; 0x800174 <rot_mem>
    1d72:	30 91 75 01 	lds	r19, 0x0175	; 0x800175 <rot_mem+0x1>
    1d76:	40 91 76 01 	lds	r20, 0x0176	; 0x800176 <rot_mem+0x2>
    1d7a:	50 91 77 01 	lds	r21, 0x0177	; 0x800177 <rot_mem+0x3>
    1d7e:	0d d2       	rcall	.+1050   	; 0x219a <__subsf3>
    1d80:	42 d3       	rcall	.+1668   	; 0x2406 <__fixsfsi>
    1d82:	9b 01       	movw	r18, r22
    1d84:	77 fd       	sbrc	r23, 7
    1d86:	1c c1       	rjmp	.+568    	; 0x1fc0 <main+0x49e>
    1d88:	b9 01       	movw	r22, r18
    1d8a:	33 0f       	add	r19, r19
    1d8c:	88 0b       	sbc	r24, r24
    1d8e:	99 0b       	sbc	r25, r25
    1d90:	6d d3       	rcall	.+1754   	; 0x246c <__floatsisf>
    1d92:	24 ef       	ldi	r18, 0xF4	; 244
    1d94:	3d ef       	ldi	r19, 0xFD	; 253
    1d96:	44 e5       	ldi	r20, 0x54	; 84
    1d98:	5d e3       	ldi	r21, 0x3D	; 61
    1d9a:	c6 d2       	rcall	.+1420   	; 0x2328 <__cmpsf2>
    1d9c:	87 ff       	sbrs	r24, 7
    1d9e:	09 c0       	rjmp	.+18     	; 0x1db2 <main+0x290>
    1da0:	80 91 72 01 	lds	r24, 0x0172	; 0x800172 <stop_counter>
					stop_counter ++;
    1da4:	90 91 73 01 	lds	r25, 0x0173	; 0x800173 <stop_counter+0x1>
    1da8:	01 96       	adiw	r24, 0x01	; 1
    1daa:	90 93 73 01 	sts	0x0173, r25	; 0x800173 <stop_counter+0x1>
    1dae:	80 93 72 01 	sts	0x0172, r24	; 0x800172 <stop_counter>
			}
			
			rot_mem = i2c_data;
    1db2:	60 91 3e 01 	lds	r22, 0x013E	; 0x80013e <i2c_data>
    1db6:	70 91 3f 01 	lds	r23, 0x013F	; 0x80013f <i2c_data+0x1>
    1dba:	07 2e       	mov	r0, r23
    1dbc:	00 0c       	add	r0, r0
    1dbe:	88 0b       	sbc	r24, r24
    1dc0:	99 0b       	sbc	r25, r25
    1dc2:	54 d3       	rcall	.+1704   	; 0x246c <__floatsisf>
    1dc4:	60 93 74 01 	sts	0x0174, r22	; 0x800174 <rot_mem>
    1dc8:	70 93 75 01 	sts	0x0175, r23	; 0x800175 <rot_mem+0x1>
    1dcc:	80 93 76 01 	sts	0x0176, r24	; 0x800176 <rot_mem+0x2>
    1dd0:	90 93 77 01 	sts	0x0177, r25	; 0x800177 <rot_mem+0x3>
    1dd4:	80 91 72 01 	lds	r24, 0x0172	; 0x800172 <stop_counter>
			
			// END EXPERIMENT
			if (stop_counter >= 40 || STOP_SWITCH == 1){			// Check for STOP condition
    1dd8:	90 91 73 01 	lds	r25, 0x0173	; 0x800173 <stop_counter+0x1>
    1ddc:	88 97       	sbiw	r24, 0x28	; 40
    1dde:	0c f0       	brlt	.+2      	; 0x1de2 <main+0x2c0>
    1de0:	9c c0       	rjmp	.+312    	; 0x1f1a <main+0x3f8>
    1de2:	80 91 6a 01 	lds	r24, 0x016A	; 0x80016a <__data_end>
    1de6:	90 91 6b 01 	lds	r25, 0x016B	; 0x80016b <__data_end+0x1>
    1dea:	01 97       	sbiw	r24, 0x01	; 1
    1dec:	09 f4       	brne	.+2      	; 0x1df0 <main+0x2ce>
    1dee:	95 c0       	rjmp	.+298    	; 0x1f1a <main+0x3f8>
				STOP_SWITCH	= 1;				// Enable global stop
				EE[0] = EE[1] = 0.69;			// SET EE to 'stop value' so MATLAB can change mode. Easier for data collection.
				u_r[0] = u_r[1] = u_r[2] = 0;	// And stop robot motion (untested)
			}
			
			sendMotor();						// Send all motor commands
    1df0:	f1 da       	rcall	.-2590   	; 0x13d4 <sendMotor>
    1df2:	88 b1       	in	r24, 0x08	; 8
			
			PORTC ^= BIT(blueLED);				// Toggle blueLED			
    1df4:	90 e4       	ldi	r25, 0x40	; 64
    1df6:	89 27       	eor	r24, r25
    1df8:	88 b9       	out	0x08, r24	; 8
    1dfa:	af e7       	ldi	r26, 0x7F	; 127
	#else
		//round up by default
		__ticks_dc = (uint32_t)(ceil(fabs(__tmp)));
	#endif

	__builtin_avr_delay_cycles(__ticks_dc);
    1dfc:	ba e1       	ldi	r27, 0x1A	; 26
    1dfe:	26 e0       	ldi	r18, 0x06	; 6
    1e00:	a1 50       	subi	r26, 0x01	; 1
    1e02:	b0 40       	sbci	r27, 0x00	; 0
    1e04:	20 40       	sbci	r18, 0x00	; 0
    1e06:	e1 f7       	brne	.-8      	; 0x1e00 <main+0x2de>
    1e08:	00 c0       	rjmp	.+0      	; 0x1e0a <main+0x2e8>
    1e0a:	00 00       	nop
    1e0c:	80 91 94 01 	lds	r24, 0x0194	; 0x800194 <start>
	//PID_Init(&pid_com, 1, 0, 0.08, 0); // 0.8, 0, 0.08 for 6 // 1, 0, 0 works OK but maybe too aggressive (it's immediately changing direction towards force feedback)
	PID_Init(&pid_att, 1.25, 0.05, 0.2, 180); // 1.25, 0.05, 0.2 is critically damped for robot 5


	// ========== PRIMARY LOOP ==========
	while(start == 0){
    1e10:	88 23       	and	r24, r24
    1e12:	09 f4       	brne	.+2      	; 0x1e16 <main+0x2f4>
    1e14:	fe ce       	rjmp	.-516    	; 0x1c12 <main+0xf0>
    1e16:	85 e0       	ldi	r24, 0x05	; 5
			_delay_ms(400);						// Slow heartbeat	
		}
	}
	
	//PORTC |= BIT(blueLED);		// Turn ON blueLED
	TCCR3B = (1<<CS32) | (0<<CS31) | (1<<CS30);
    1e18:	80 93 91 00 	sts	0x0091, r24	; 0x800091 <__TEXT_REGION_LENGTH__+0x7e0091>
    1e1c:	80 e0       	ldi	r24, 0x00	; 0
		
	return 0;
}
    1e1e:	90 e0       	ldi	r25, 0x00	; 0
    1e20:	68 96       	adiw	r28, 0x18	; 24
    1e22:	0f b6       	in	r0, 0x3f	; 63
    1e24:	f8 94       	cli
    1e26:	de bf       	out	0x3e, r29	; 62
    1e28:	0f be       	out	0x3f, r0	; 63
    1e2a:	cd bf       	out	0x3d, r28	; 61
    1e2c:	df 91       	pop	r29
    1e2e:	cf 91       	pop	r28
    1e30:	1f 91       	pop	r17
    1e32:	0f 91       	pop	r16
    1e34:	ff 90       	pop	r15
    1e36:	ef 90       	pop	r14
    1e38:	df 90       	pop	r13
    1e3a:	cf 90       	pop	r12
    1e3c:	bf 90       	pop	r11
    1e3e:	af 90       	pop	r10
    1e40:	9f 90       	pop	r9
    1e42:	8f 90       	pop	r8
    1e44:	7f 90       	pop	r7
    1e46:	6f 90       	pop	r6
    1e48:	5f 90       	pop	r5
    1e4a:	4f 90       	pop	r4
    1e4c:	3f 90       	pop	r3
    1e4e:	2f 90       	pop	r2
    1e50:	08 95       	ret
    1e52:	01 2b       	or	r16, r17
		}	
		
		
		else {
			// When not in on-board mode, send initial 'stop' command
			if (iii != 0){
    1e54:	09 f0       	breq	.+2      	; 0x1e58 <main+0x336>
    1e56:	9a c0       	rjmp	.+308    	; 0x1f8c <main+0x46a>
    1e58:	88 b1       	in	r24, 0x08	; 8
				u_r[0] = u_r[1] = u_r[2] = 0;
				sendMotor();
			}
			iii = 0;
			
			PORTC ^= BIT(blueLED);				// Toggle blueLED
    1e5a:	90 e4       	ldi	r25, 0x40	; 64
    1e5c:	89 27       	eor	r24, r25
    1e5e:	88 b9       	out	0x08, r24	; 8
    1e60:	af ef       	ldi	r26, 0xFF	; 255
    1e62:	b9 e6       	ldi	r27, 0x69	; 105
    1e64:	28 e1       	ldi	r18, 0x18	; 24
    1e66:	a1 50       	subi	r26, 0x01	; 1
    1e68:	b0 40       	sbci	r27, 0x00	; 0
    1e6a:	20 40       	sbci	r18, 0x00	; 0
    1e6c:	e1 f7       	brne	.-8      	; 0x1e66 <main+0x344>
    1e6e:	00 c0       	rjmp	.+0      	; 0x1e70 <main+0x34e>
    1e70:	00 00       	nop
    1e72:	00 e0       	ldi	r16, 0x00	; 0
			// When not in on-board mode, send initial 'stop' command
			if (iii != 0){
				u_r[0] = u_r[1] = u_r[2] = 0;
				sendMotor();
			}
			iii = 0;
    1e74:	10 e0       	ldi	r17, 0x00	; 0
    1e76:	c9 ce       	rjmp	.-622    	; 0x1c0a <main+0xe8>
    1e78:	30 92 6d 01 	sts	0x016D, r3	; 0x80016d <att_switch+0x1>

			//  === Want to do EITHER LoA search OR correct attitude ===
			
			// If wheel about to collide, activate attitude control
			if (i2c_data <= STOP_LOWER || i2c_data >= STOP_UPPER) {
				att_switch = 1; // Turn ON attitude control, stop LoA search
    1e7c:	20 92 6c 01 	sts	0x016C, r2	; 0x80016c <att_switch>
    1e80:	10 92 84 01 	sts	0x0184, r1	; 0x800184 <u_r+0x4>
				u_r[1] = 0;
    1e84:	10 92 85 01 	sts	0x0185, r1	; 0x800185 <u_r+0x5>
    1e88:	10 92 86 01 	sts	0x0186, r1	; 0x800186 <u_r+0x6>
    1e8c:	10 92 87 01 	sts	0x0187, r1	; 0x800187 <u_r+0x7>
    1e90:	10 92 88 01 	sts	0x0188, r1	; 0x800188 <u_r+0x8>
				u_r[2] = 0;
    1e94:	10 92 89 01 	sts	0x0189, r1	; 0x800189 <u_r+0x9>
    1e98:	10 92 8a 01 	sts	0x018A, r1	; 0x80018a <u_r+0xa>
    1e9c:	10 92 8b 01 	sts	0x018B, r1	; 0x80018b <u_r+0xb>
    1ea0:	80 91 3e 01 	lds	r24, 0x013E	; 0x80013e <i2c_data>
			}
			if (i2c_data >= 170  && i2c_data <= 190){ // 179 and 181 If attitude control is done turn OFF attitude control switch
    1ea4:	90 91 3f 01 	lds	r25, 0x013F	; 0x80013f <i2c_data+0x1>
    1ea8:	8a 3a       	cpi	r24, 0xAA	; 170
    1eaa:	91 05       	cpc	r25, r1
    1eac:	0c f4       	brge	.+2      	; 0x1eb0 <main+0x38e>
    1eae:	66 c0       	rjmp	.+204    	; 0x1f7c <main+0x45a>
    1eb0:	80 91 3e 01 	lds	r24, 0x013E	; 0x80013e <i2c_data>
    1eb4:	90 91 3f 01 	lds	r25, 0x013F	; 0x80013f <i2c_data+0x1>
    1eb8:	8f 3b       	cpi	r24, 0xBF	; 191
    1eba:	91 05       	cpc	r25, r1
    1ebc:	0c f0       	brlt	.+2      	; 0x1ec0 <main+0x39e>
    1ebe:	5e c0       	rjmp	.+188    	; 0x1f7c <main+0x45a>
    1ec0:	10 92 6d 01 	sts	0x016D, r1	; 0x80016d <att_switch+0x1>
				att_switch = 0;
    1ec4:	10 92 6c 01 	sts	0x016C, r1	; 0x80016c <att_switch>
    1ec8:	10 92 80 01 	sts	0x0180, r1	; 0x800180 <u_r>
				u_r[0] = 0;
    1ecc:	10 92 81 01 	sts	0x0181, r1	; 0x800181 <u_r+0x1>
    1ed0:	10 92 82 01 	sts	0x0182, r1	; 0x800182 <u_r+0x2>
    1ed4:	10 92 83 01 	sts	0x0183, r1	; 0x800183 <u_r+0x3>
    1ed8:	80 91 78 01 	lds	r24, 0x0178	; 0x800178 <u_r_mem>
				u_r[1] = u_r_mem[0]; // Resume prior motion
    1edc:	90 91 79 01 	lds	r25, 0x0179	; 0x800179 <u_r_mem+0x1>
    1ee0:	a0 91 7a 01 	lds	r26, 0x017A	; 0x80017a <u_r_mem+0x2>
    1ee4:	b0 91 7b 01 	lds	r27, 0x017B	; 0x80017b <u_r_mem+0x3>
    1ee8:	80 93 84 01 	sts	0x0184, r24	; 0x800184 <u_r+0x4>
    1eec:	90 93 85 01 	sts	0x0185, r25	; 0x800185 <u_r+0x5>
    1ef0:	a0 93 86 01 	sts	0x0186, r26	; 0x800186 <u_r+0x6>
    1ef4:	b0 93 87 01 	sts	0x0187, r27	; 0x800187 <u_r+0x7>
    1ef8:	80 91 7c 01 	lds	r24, 0x017C	; 0x80017c <u_r_mem+0x4>
				u_r[2] = u_r_mem[1];
    1efc:	90 91 7d 01 	lds	r25, 0x017D	; 0x80017d <u_r_mem+0x5>
    1f00:	a0 91 7e 01 	lds	r26, 0x017E	; 0x80017e <u_r_mem+0x6>
    1f04:	b0 91 7f 01 	lds	r27, 0x017F	; 0x80017f <u_r_mem+0x7>
    1f08:	80 93 88 01 	sts	0x0188, r24	; 0x800188 <u_r+0x8>
    1f0c:	90 93 89 01 	sts	0x0189, r25	; 0x800189 <u_r+0x9>
    1f10:	a0 93 8a 01 	sts	0x018A, r26	; 0x80018a <u_r+0xa>
    1f14:	b0 93 8b 01 	sts	0x018B, r27	; 0x80018b <u_r+0xb>
    1f18:	1d cf       	rjmp	.-454    	; 0x1d54 <main+0x232>
    1f1a:	30 92 6b 01 	sts	0x016B, r3	; 0x80016b <__data_end+0x1>
			
			rot_mem = i2c_data;
			
			// END EXPERIMENT
			if (stop_counter >= 40 || STOP_SWITCH == 1){			// Check for STOP condition
				STOP_SWITCH	= 1;				// Enable global stop
    1f1e:	20 92 6a 01 	sts	0x016A, r2	; 0x80016a <__data_end>
    1f22:	87 ed       	ldi	r24, 0xD7	; 215
				EE[0] = EE[1] = 0.69;			// SET EE to 'stop value' so MATLAB can change mode. Easier for data collection.
    1f24:	93 ea       	ldi	r25, 0xA3	; 163
    1f26:	a0 e3       	ldi	r26, 0x30	; 48
    1f28:	bf e3       	ldi	r27, 0x3F	; 63
    1f2a:	80 93 a1 01 	sts	0x01A1, r24	; 0x8001a1 <EE+0x4>
    1f2e:	90 93 a2 01 	sts	0x01A2, r25	; 0x8001a2 <EE+0x5>
    1f32:	a0 93 a3 01 	sts	0x01A3, r26	; 0x8001a3 <EE+0x6>
    1f36:	b0 93 a4 01 	sts	0x01A4, r27	; 0x8001a4 <EE+0x7>
    1f3a:	80 93 9d 01 	sts	0x019D, r24	; 0x80019d <EE>
    1f3e:	90 93 9e 01 	sts	0x019E, r25	; 0x80019e <EE+0x1>
    1f42:	a0 93 9f 01 	sts	0x019F, r26	; 0x80019f <EE+0x2>
    1f46:	b0 93 a0 01 	sts	0x01A0, r27	; 0x8001a0 <EE+0x3>
    1f4a:	10 92 88 01 	sts	0x0188, r1	; 0x800188 <u_r+0x8>
				u_r[0] = u_r[1] = u_r[2] = 0;	// And stop robot motion (untested)
    1f4e:	10 92 89 01 	sts	0x0189, r1	; 0x800189 <u_r+0x9>
    1f52:	10 92 8a 01 	sts	0x018A, r1	; 0x80018a <u_r+0xa>
    1f56:	10 92 8b 01 	sts	0x018B, r1	; 0x80018b <u_r+0xb>
    1f5a:	10 92 84 01 	sts	0x0184, r1	; 0x800184 <u_r+0x4>
    1f5e:	10 92 85 01 	sts	0x0185, r1	; 0x800185 <u_r+0x5>
    1f62:	10 92 86 01 	sts	0x0186, r1	; 0x800186 <u_r+0x6>
    1f66:	10 92 87 01 	sts	0x0187, r1	; 0x800187 <u_r+0x7>
    1f6a:	10 92 80 01 	sts	0x0180, r1	; 0x800180 <u_r>
    1f6e:	10 92 81 01 	sts	0x0181, r1	; 0x800181 <u_r+0x1>
    1f72:	10 92 82 01 	sts	0x0182, r1	; 0x800182 <u_r+0x2>
    1f76:	10 92 83 01 	sts	0x0183, r1	; 0x800183 <u_r+0x3>
    1f7a:	3a cf       	rjmp	.-396    	; 0x1df0 <main+0x2ce>
				u_r[2] = u_r_mem[1];
			}
			
			// Attitude control switching
			if (att_switch) {
				correctAttitude(&pid_att);
    1f7c:	ce 01       	movw	r24, r28
    1f7e:	01 96       	adiw	r24, 0x01	; 1
    1f80:	9d db       	rcall	.-2246   	; 0x16bc <correctAttitude>
    1f82:	10 92 73 01 	sts	0x0173, r1	; 0x800173 <stop_counter+0x1>
				// STOP CONDITION RESET
				stop_counter = 0;
    1f86:	10 92 72 01 	sts	0x0172, r1	; 0x800172 <stop_counter>
    1f8a:	13 cf       	rjmp	.-474    	; 0x1db2 <main+0x290>
    1f8c:	10 92 88 01 	sts	0x0188, r1	; 0x800188 <u_r+0x8>
		
		
		else {
			// When not in on-board mode, send initial 'stop' command
			if (iii != 0){
				u_r[0] = u_r[1] = u_r[2] = 0;
    1f90:	10 92 89 01 	sts	0x0189, r1	; 0x800189 <u_r+0x9>
    1f94:	10 92 8a 01 	sts	0x018A, r1	; 0x80018a <u_r+0xa>
    1f98:	10 92 8b 01 	sts	0x018B, r1	; 0x80018b <u_r+0xb>
    1f9c:	10 92 84 01 	sts	0x0184, r1	; 0x800184 <u_r+0x4>
    1fa0:	10 92 85 01 	sts	0x0185, r1	; 0x800185 <u_r+0x5>
    1fa4:	10 92 86 01 	sts	0x0186, r1	; 0x800186 <u_r+0x6>
    1fa8:	10 92 87 01 	sts	0x0187, r1	; 0x800187 <u_r+0x7>
    1fac:	10 92 80 01 	sts	0x0180, r1	; 0x800180 <u_r>
    1fb0:	10 92 81 01 	sts	0x0181, r1	; 0x800181 <u_r+0x1>
    1fb4:	10 92 82 01 	sts	0x0182, r1	; 0x800182 <u_r+0x2>
    1fb8:	10 92 83 01 	sts	0x0183, r1	; 0x800183 <u_r+0x3>
				sendMotor();
    1fbc:	0b da       	rcall	.-3050   	; 0x13d4 <sendMotor>
    1fbe:	4c cf       	rjmp	.-360    	; 0x1e58 <main+0x336>
    1fc0:	22 27       	eor	r18, r18
			}
			else {
				loaSearch();
				correctAttitude(&pid_att);
				// STOP CONDITION CHECK
				if (abs(i2c_data - rot_mem) < 0.052) //10 deg // 0.09=5 degrees  // .052 = 3 degrees // Increment if payload vs robot orientation small rate of change
    1fc2:	33 27       	eor	r19, r19
    1fc4:	26 1b       	sub	r18, r22
    1fc6:	37 0b       	sbc	r19, r23
    1fc8:	df ce       	rjmp	.-578    	; 0x1d88 <main+0x266>

00001fca <TWI_Slave_Initialise>:
    1fca:	80 93 ba 00 	sts	0x00BA, r24	; 0x8000ba <__TEXT_REGION_LENGTH__+0x7e00ba>
  TWCR = (1<<TWEN)|                             // TWI Interface enabled.
         (1<<TWIE)|(1<<TWINT)|                  // Enable TWI Interrupt and clear the flag.
         (1<<TWEA)|(0<<TWSTA)|(0<<TWSTO)|       // Prepare to ACK next time the Slave is addressed.
         (0<<TWWC);                             //
  TWI_busy = 1;
}
    1fce:	84 e0       	ldi	r24, 0x04	; 4
    1fd0:	80 93 bc 00 	sts	0x00BC, r24	; 0x8000bc <__TEXT_REGION_LENGTH__+0x7e00bc>
    1fd4:	10 92 ab 01 	sts	0x01AB, r1	; 0x8001ab <TWI_busy>
    1fd8:	08 95       	ret

00001fda <TWI_Transceiver_Busy>:
    1fda:	80 91 ab 01 	lds	r24, 0x01AB	; 0x8001ab <TWI_busy>
    1fde:	08 95       	ret

00001fe0 <TWI_Get_State_Info>:
    1fe0:	80 91 ab 01 	lds	r24, 0x01AB	; 0x8001ab <TWI_busy>
    1fe4:	81 11       	cpse	r24, r1
    1fe6:	fe cf       	rjmp	.-4      	; 0x1fe4 <TWI_Get_State_Info+0x4>
    1fe8:	80 91 5c 01 	lds	r24, 0x015C	; 0x80015c <TWI_state>
    1fec:	08 95       	ret

00001fee <TWI_Start_Transceiver>:
a transmission, or just starting the transceiver for reception. The driver will reuse the data previously put
in the transceiver buffers. The function will hold execution (loop) until the TWI_ISR has completed with the 
previous operation, then initialize the next operation and return.
****************************************************************************/
void TWI_Start_Transceiver( void )
{
    1fee:	80 91 ab 01 	lds	r24, 0x01AB	; 0x8001ab <TWI_busy>
  while ( TWI_Transceiver_Busy() ) {}             // Wait until TWI is ready for next transmission.
    1ff2:	81 11       	cpse	r24, r1
    1ff4:	fe cf       	rjmp	.-4      	; 0x1ff2 <TWI_Start_Transceiver+0x4>
  TWI_statusReg.all = 0;      
  TWI_statusReg.lastTransOK = 1;				// HYLAND 07-20-2024 I ADDED THIS TO MAKE IT WORRRRRKKKK
    1ff6:	81 e0       	ldi	r24, 0x01	; 1
    1ff8:	80 93 aa 01 	sts	0x01AA, r24	; 0x8001aa <TWI_statusReg>
  TWI_state         = TWI_NO_STATE ;
    1ffc:	88 ef       	ldi	r24, 0xF8	; 248
    1ffe:	80 93 5c 01 	sts	0x015C, r24	; 0x80015c <TWI_state>
  TWCR = (1<<TWEN)|                             // TWI Interface enabled.
    2002:	85 ec       	ldi	r24, 0xC5	; 197
    2004:	80 93 bc 00 	sts	0x00BC, r24	; 0x8000bc <__TEXT_REGION_LENGTH__+0x7e00bc>
         (1<<TWIE)|(1<<TWINT)|                  // Enable TWI Interrupt and clear the flag.
         (1<<TWEA)|(0<<TWSTA)|(0<<TWSTO)|       // Prepare to ACK next time the Slave is addressed.
         (0<<TWWC);                             //
  TWI_busy = 0;
    2008:	10 92 ab 01 	sts	0x01AB, r1	; 0x8001ab <TWI_busy>
    200c:	08 95       	ret

0000200e <TWI_Get_Data_From_Transceiver>:
to fetch in the function call. The function will hold execution (loop) until the TWI_ISR has completed 
with the previous operation, before reading out the data and returning.
If there was an error in the previous transmission the function will return the TWI State code.
****************************************************************************/
unsigned char TWI_Get_Data_From_Transceiver( unsigned char *msg, unsigned char msgSize )
{
    200e:	20 91 ab 01 	lds	r18, 0x01AB	; 0x8001ab <TWI_busy>
  unsigned char i;

  while ( TWI_Transceiver_Busy() ) {}             // Wait until TWI is ready for next transmission.
    2012:	21 11       	cpse	r18, r1
    2014:	fe cf       	rjmp	.-4      	; 0x2012 <TWI_Get_Data_From_Transceiver+0x4>

  if( TWI_statusReg.lastTransOK )               // Last transmission completed successfully.              
    2016:	20 91 aa 01 	lds	r18, 0x01AA	; 0x8001aa <TWI_statusReg>
    201a:	20 ff       	sbrs	r18, 0
    201c:	15 c0       	rjmp	.+42     	; 0x2048 <TWI_Get_Data_From_Transceiver+0x3a>
  {                                             
    for ( i=0; i<msgSize; i++ )                 // Copy data from Transceiver buffer.
    201e:	66 23       	and	r22, r22
    2020:	71 f0       	breq	.+28     	; 0x203e <TWI_Get_Data_From_Transceiver+0x30>
    2022:	ad ea       	ldi	r26, 0xAD	; 173
    2024:	b1 e0       	ldi	r27, 0x01	; 1
    2026:	fc 01       	movw	r30, r24
    2028:	61 50       	subi	r22, 0x01	; 1
    202a:	86 2f       	mov	r24, r22
    202c:	90 e0       	ldi	r25, 0x00	; 0
    202e:	01 96       	adiw	r24, 0x01	; 1
    2030:	8e 0f       	add	r24, r30
    2032:	9f 1f       	adc	r25, r31
    {
      msg[ i ] = TWI_buf[ i ];
    2034:	2d 91       	ld	r18, X+
    2036:	21 93       	st	Z+, r18

  while ( TWI_Transceiver_Busy() ) {}             // Wait until TWI is ready for next transmission.

  if( TWI_statusReg.lastTransOK )               // Last transmission completed successfully.              
  {                                             
    for ( i=0; i<msgSize; i++ )                 // Copy data from Transceiver buffer.
    2038:	e8 17       	cp	r30, r24
    203a:	f9 07       	cpc	r31, r25
    203c:	d9 f7       	brne	.-10     	; 0x2034 <TWI_Get_Data_From_Transceiver+0x26>
    {
      msg[ i ] = TWI_buf[ i ];
    }
    TWI_statusReg.RxDataInBuf = FALSE;          // Slave Receive data has been read from buffer.
    203e:	20 91 aa 01 	lds	r18, 0x01AA	; 0x8001aa <TWI_statusReg>
    2042:	2d 7f       	andi	r18, 0xFD	; 253
    2044:	20 93 aa 01 	sts	0x01AA, r18	; 0x8001aa <TWI_statusReg>
  }
  return( TWI_statusReg.lastTransOK );                                   
}
    2048:	82 2f       	mov	r24, r18
    204a:	81 70       	andi	r24, 0x01	; 1
    204c:	08 95       	ret

0000204e <__vector_26>:
This function is the Interrupt Service Routine (ISR), and called when the TWI interrupt is triggered;
that is whenever a TWI event has occurred. This function should not be called directly from the main
application.
****************************************************************************/
ISR(TWI_vect)
{
    204e:	1f 92       	push	r1
    2050:	0f 92       	push	r0
    2052:	0f b6       	in	r0, 0x3f	; 63
    2054:	0f 92       	push	r0
    2056:	11 24       	eor	r1, r1
    2058:	0b b6       	in	r0, 0x3b	; 59
    205a:	0f 92       	push	r0
    205c:	8f 93       	push	r24
    205e:	9f 93       	push	r25
    2060:	ef 93       	push	r30
    2062:	ff 93       	push	r31
  static unsigned char TWI_bufPtr;
  
  switch (TWSR)
    2064:	80 91 b9 00 	lds	r24, 0x00B9	; 0x8000b9 <__TEXT_REGION_LENGTH__+0x7e00b9>
    2068:	80 39       	cpi	r24, 0x90	; 144
    206a:	09 f4       	brne	.+2      	; 0x206e <__vector_26+0x20>
    206c:	6a c0       	rjmp	.+212    	; 0x2142 <__vector_26+0xf4>
    206e:	f0 f0       	brcs	.+60     	; 0x20ac <__vector_26+0x5e>
    2070:	88 3a       	cpi	r24, 0xA8	; 168
    2072:	e1 f1       	breq	.+120    	; 0x20ec <__vector_26+0x9e>
    2074:	08 f4       	brcc	.+2      	; 0x2078 <__vector_26+0x2a>
    2076:	5a c0       	rjmp	.+180    	; 0x212c <__vector_26+0xde>
    2078:	80 3c       	cpi	r24, 0xC0	; 192
    207a:	e1 f1       	breq	.+120    	; 0x20f4 <__vector_26+0xa6>
    207c:	88 3c       	cpi	r24, 0xC8	; 200
    207e:	09 f4       	brne	.+2      	; 0x2082 <__vector_26+0x34>
    2080:	4d c0       	rjmp	.+154    	; 0x211c <__vector_26+0xce>
    2082:	88 3b       	cpi	r24, 0xB8	; 184
    2084:	e9 f5       	brne	.+122    	; 0x2100 <__vector_26+0xb2>
    2086:	e0 91 a9 01 	lds	r30, 0x01A9	; 0x8001a9 <TWI_bufPtr.1675>
    208a:	81 e0       	ldi	r24, 0x01	; 1
    208c:	8e 0f       	add	r24, r30
    208e:	f0 e0       	ldi	r31, 0x00	; 0
  {
    case TWI_STX_ADR_ACK:            // Own SLA+R has been received; ACK has been returned
     TWI_bufPtr   = 0;                                 // Set buffer pointer to first data location
    case TWI_STX_DATA_ACK:           // Data byte in TWDR has been transmitted; ACK has been received
      TWDR = TWI_buf[TWI_bufPtr++];
    2090:	80 93 a9 01 	sts	0x01A9, r24	; 0x8001a9 <TWI_bufPtr.1675>
    2094:	e3 55       	subi	r30, 0x53	; 83
    2096:	fe 4f       	sbci	r31, 0xFE	; 254
    2098:	80 81       	ld	r24, Z
    209a:	80 93 bb 00 	sts	0x00BB, r24	; 0x8000bb <__TEXT_REGION_LENGTH__+0x7e00bb>
      TWCR = (1<<TWEN)|                                 // TWI Interface enabled
    209e:	85 ec       	ldi	r24, 0xC5	; 197
    20a0:	80 93 bc 00 	sts	0x00BC, r24	; 0x8000bc <__TEXT_REGION_LENGTH__+0x7e00bc>
             (1<<TWIE)|(1<<TWINT)|                      // Enable TWI Interrupt and clear the flag to send byte
             (1<<TWEA)|(0<<TWSTA)|(0<<TWSTO)|           // 
             (0<<TWWC);                                 //
      TWI_busy = 1;
    20a4:	81 e0       	ldi	r24, 0x01	; 1
    20a6:	80 93 ab 01 	sts	0x01AB, r24	; 0x8001ab <TWI_busy>
      break;
    20aa:	15 c0       	rjmp	.+42     	; 0x20d6 <__vector_26+0x88>
****************************************************************************/
ISR(TWI_vect)
{
  static unsigned char TWI_bufPtr;
  
  switch (TWSR)
    20ac:	80 37       	cpi	r24, 0x70	; 112
    20ae:	09 f4       	brne	.+2      	; 0x20b2 <__vector_26+0x64>
    20b0:	42 c0       	rjmp	.+132    	; 0x2136 <__vector_26+0xe8>
    20b2:	80 f5       	brcc	.+96     	; 0x2114 <__vector_26+0xc6>
    20b4:	88 23       	and	r24, r24
    20b6:	91 f1       	breq	.+100    	; 0x211c <__vector_26+0xce>
    20b8:	80 36       	cpi	r24, 0x60	; 96
    20ba:	11 f5       	brne	.+68     	; 0x2100 <__vector_26+0xb2>
      break;     
    case TWI_SRX_GEN_ACK:            // General call address has been received; ACK has been returned
      TWI_statusReg.genAddressCall = TRUE;
    case TWI_SRX_ADR_ACK:            // Own SLA+W has been received ACK has been returned
                                                       // don't need to clear TWI_S_statusRegister.generalAddressCall due to that it is the default state.
      TWI_statusReg.RxDataInBuf = TRUE;      
    20bc:	80 91 aa 01 	lds	r24, 0x01AA	; 0x8001aa <TWI_statusReg>
    20c0:	82 60       	ori	r24, 0x02	; 2
    20c2:	80 93 aa 01 	sts	0x01AA, r24	; 0x8001aa <TWI_statusReg>
      TWI_bufPtr   = 0;                                 // Set buffer pointer to first data location
    20c6:	10 92 a9 01 	sts	0x01A9, r1	; 0x8001a9 <TWI_bufPtr.1675>
      
                                                        // Reset the TWI Interrupt to wait for a new event.
      TWCR = (1<<TWEN)|                                 // TWI Interface enabled
    20ca:	85 ec       	ldi	r24, 0xC5	; 197
    20cc:	80 93 bc 00 	sts	0x00BC, r24	; 0x8000bc <__TEXT_REGION_LENGTH__+0x7e00bc>
             (1<<TWIE)|(1<<TWINT)|                      // Enable TWI Interrupt and clear the flag to send byte
             (1<<TWEA)|(0<<TWSTA)|(0<<TWSTO)|           // Expect ACK on this transmission
             (0<<TWWC);  
      TWI_busy = 1;
    20d0:	81 e0       	ldi	r24, 0x01	; 1
    20d2:	80 93 ab 01 	sts	0x01AB, r24	; 0x8001ab <TWI_busy>
             (1<<TWEA)|(0<<TWSTA)|(0<<TWSTO)|           // Acknowledge on any new requests.
             (0<<TWWC);                                 //
      
      TWI_busy = 0; // Unknown status, so we wait for a new address match that might be something we can handle
  }
}
    20d6:	ff 91       	pop	r31
    20d8:	ef 91       	pop	r30
    20da:	9f 91       	pop	r25
    20dc:	8f 91       	pop	r24
    20de:	0f 90       	pop	r0
    20e0:	0b be       	out	0x3b, r0	; 59
    20e2:	0f 90       	pop	r0
    20e4:	0f be       	out	0x3f, r0	; 63
    20e6:	0f 90       	pop	r0
    20e8:	1f 90       	pop	r1
    20ea:	18 95       	reti
****************************************************************************/
ISR(TWI_vect)
{
  static unsigned char TWI_bufPtr;
  
  switch (TWSR)
    20ec:	e0 e0       	ldi	r30, 0x00	; 0
    20ee:	f0 e0       	ldi	r31, 0x00	; 0
    20f0:	81 e0       	ldi	r24, 0x01	; 1
    20f2:	ce cf       	rjmp	.-100    	; 0x2090 <__vector_26+0x42>
             (0<<TWWC);                                 //
      TWI_busy = 1;
      break;
    case TWI_STX_DATA_NACK:          // Data byte in TWDR has been transmitted; NACK has been received. 
                                     // I.e. this could be the end of the transmission.
      if (TWI_bufPtr == TWI_msgSize) // Have we transceiver all expected data?
    20f4:	90 91 a9 01 	lds	r25, 0x01A9	; 0x8001a9 <TWI_bufPtr.1675>
    20f8:	80 91 ac 01 	lds	r24, 0x01AC	; 0x8001ac <TWI_msgSize>
    20fc:	98 17       	cp	r25, r24
    20fe:	c9 f1       	breq	.+114    	; 0x2172 <__vector_26+0x124>
    case TWI_BUS_ERROR:         // Bus error due to an illegal START or STOP condition
      TWI_state = TWSR;                 //Store TWI State as error message, operation also clears noErrors bit
      TWCR =   (1<<TWSTO)|(1<<TWINT);   //Recover from TWI_BUS_ERROR, this will release the SDA and SCL pins thus enabling other devices to use the bus
      break;
    default:     
      TWI_state = TWSR;                                 // Store TWI State as error message, operation also clears the Success bit.      
    2100:	80 91 b9 00 	lds	r24, 0x00B9	; 0x8000b9 <__TEXT_REGION_LENGTH__+0x7e00b9>
    2104:	80 93 5c 01 	sts	0x015C, r24	; 0x80015c <TWI_state>
      TWCR = (1<<TWEN)|                                 // Enable TWI-interface and release TWI pins
    2108:	85 ec       	ldi	r24, 0xC5	; 197
    210a:	80 93 bc 00 	sts	0x00BC, r24	; 0x8000bc <__TEXT_REGION_LENGTH__+0x7e00bc>
             (1<<TWIE)|(1<<TWINT)|                      // Keep interrupt enabled and clear the flag
             (1<<TWEA)|(0<<TWSTA)|(0<<TWSTO)|           // Acknowledge on any new requests.
             (0<<TWWC);                                 //
      
      TWI_busy = 0; // Unknown status, so we wait for a new address match that might be something we can handle
    210e:	10 92 ab 01 	sts	0x01AB, r1	; 0x8001ab <TWI_busy>
  }
}
    2112:	e1 cf       	rjmp	.-62     	; 0x20d6 <__vector_26+0x88>
****************************************************************************/
ISR(TWI_vect)
{
  static unsigned char TWI_bufPtr;
  
  switch (TWSR)
    2114:	80 38       	cpi	r24, 0x80	; 128
    2116:	a9 f0       	breq	.+42     	; 0x2142 <__vector_26+0xf4>
    2118:	88 38       	cpi	r24, 0x88	; 136
    211a:	91 f7       	brne	.-28     	; 0x2100 <__vector_26+0xb2>
      break;           
    case TWI_SRX_ADR_DATA_NACK:      // Previously addressed with own SLA+W; data has been received; NOT ACK has been returned
    case TWI_SRX_GEN_DATA_NACK:      // Previously addressed with general call; data has been received; NOT ACK has been returned
    case TWI_STX_DATA_ACK_LAST_BYTE: // Last data byte in TWDR has been transmitted (TWEA = 0); ACK has been received
    case TWI_BUS_ERROR:         // Bus error due to an illegal START or STOP condition
      TWI_state = TWSR;                 //Store TWI State as error message, operation also clears noErrors bit
    211c:	80 91 b9 00 	lds	r24, 0x00B9	; 0x8000b9 <__TEXT_REGION_LENGTH__+0x7e00b9>
    2120:	80 93 5c 01 	sts	0x015C, r24	; 0x80015c <TWI_state>
      TWCR =   (1<<TWSTO)|(1<<TWINT);   //Recover from TWI_BUS_ERROR, this will release the SDA and SCL pins thus enabling other devices to use the bus
    2124:	80 e9       	ldi	r24, 0x90	; 144
    2126:	80 93 bc 00 	sts	0x00BC, r24	; 0x8000bc <__TEXT_REGION_LENGTH__+0x7e00bc>
      break;
    212a:	d5 cf       	rjmp	.-86     	; 0x20d6 <__vector_26+0x88>
****************************************************************************/
ISR(TWI_vect)
{
  static unsigned char TWI_bufPtr;
  
  switch (TWSR)
    212c:	88 39       	cpi	r24, 0x98	; 152
    212e:	b1 f3       	breq	.-20     	; 0x211c <__vector_26+0xce>
    2130:	80 3a       	cpi	r24, 0xA0	; 160
    2132:	51 f3       	breq	.-44     	; 0x2108 <__vector_26+0xba>
    2134:	e5 cf       	rjmp	.-54     	; 0x2100 <__vector_26+0xb2>
             (0<<TWWC);                                 //
      
      TWI_busy = 0;   // Transmit is finished, we are not busy anymore
      break;     
    case TWI_SRX_GEN_ACK:            // General call address has been received; ACK has been returned
      TWI_statusReg.genAddressCall = TRUE;
    2136:	80 91 aa 01 	lds	r24, 0x01AA	; 0x8001aa <TWI_statusReg>
    213a:	84 60       	ori	r24, 0x04	; 4
    213c:	80 93 aa 01 	sts	0x01AA, r24	; 0x8001aa <TWI_statusReg>
    2140:	bd cf       	rjmp	.-134    	; 0x20bc <__vector_26+0x6e>
      TWI_busy = 1;
      
      break;
    case TWI_SRX_ADR_DATA_ACK:       // Previously addressed with own SLA+W; data has been received; ACK has been returned
    case TWI_SRX_GEN_DATA_ACK:       // Previously addressed with general call; data has been received; ACK has been returned
      TWI_buf[TWI_bufPtr++]     = TWDR;
    2142:	e0 91 a9 01 	lds	r30, 0x01A9	; 0x8001a9 <TWI_bufPtr.1675>
    2146:	81 e0       	ldi	r24, 0x01	; 1
    2148:	8e 0f       	add	r24, r30
    214a:	80 93 a9 01 	sts	0x01A9, r24	; 0x8001a9 <TWI_bufPtr.1675>
    214e:	80 91 bb 00 	lds	r24, 0x00BB	; 0x8000bb <__TEXT_REGION_LENGTH__+0x7e00bb>
    2152:	f0 e0       	ldi	r31, 0x00	; 0
    2154:	e3 55       	subi	r30, 0x53	; 83
    2156:	fe 4f       	sbci	r31, 0xFE	; 254
    2158:	80 83       	st	Z, r24
      TWI_statusReg.lastTransOK = TRUE;                 // Set flag transmission successfully.       
    215a:	80 91 aa 01 	lds	r24, 0x01AA	; 0x8001aa <TWI_statusReg>
    215e:	81 60       	ori	r24, 0x01	; 1
    2160:	80 93 aa 01 	sts	0x01AA, r24	; 0x8001aa <TWI_statusReg>
                                                        // Reset the TWI Interrupt to wait for a new event.
      TWCR = (1<<TWEN)|                                 // TWI Interface enabled
    2164:	85 ec       	ldi	r24, 0xC5	; 197
    2166:	80 93 bc 00 	sts	0x00BC, r24	; 0x8000bc <__TEXT_REGION_LENGTH__+0x7e00bc>
             (1<<TWIE)|(1<<TWINT)|                      // Enable TWI Interrupt and clear the flag to send byte
             (1<<TWEA)|(0<<TWSTA)|(0<<TWSTO)|           // Send ACK after next reception
             (0<<TWWC);                                 // 
      TWI_busy = 1;
    216a:	81 e0       	ldi	r24, 0x01	; 1
    216c:	80 93 ab 01 	sts	0x01AB, r24	; 0x8001ab <TWI_busy>
      break;
    2170:	b2 cf       	rjmp	.-156    	; 0x20d6 <__vector_26+0x88>
      break;
    case TWI_STX_DATA_NACK:          // Data byte in TWDR has been transmitted; NACK has been received. 
                                     // I.e. this could be the end of the transmission.
      if (TWI_bufPtr == TWI_msgSize) // Have we transceiver all expected data?
      {
        TWI_statusReg.lastTransOK = TRUE;               // Set status bits to completed successfully. 
    2172:	80 91 aa 01 	lds	r24, 0x01AA	; 0x8001aa <TWI_statusReg>
    2176:	81 60       	ori	r24, 0x01	; 1
    2178:	80 93 aa 01 	sts	0x01AA, r24	; 0x8001aa <TWI_statusReg>
    217c:	c5 cf       	rjmp	.-118    	; 0x2108 <__vector_26+0xba>

0000217e <acos>:
    217e:	9f 93       	push	r25
    2180:	9f 77       	andi	r25, 0x7F	; 127
    2182:	af d1       	rcall	.+862    	; 0x24e2 <__fp_arccos>
    2184:	0f 90       	pop	r0
    2186:	00 20       	and	r0, r0
    2188:	3a f4       	brpl	.+14     	; 0x2198 <acos+0x1a>
    218a:	90 58       	subi	r25, 0x80	; 128
    218c:	a2 ea       	ldi	r26, 0xA2	; 162
    218e:	2a ed       	ldi	r18, 0xDA	; 218
    2190:	3f e0       	ldi	r19, 0x0F	; 15
    2192:	49 e4       	ldi	r20, 0x49	; 73
    2194:	50 e4       	ldi	r21, 0x40	; 64
    2196:	13 d0       	rcall	.+38     	; 0x21be <__addsf3x>
    2198:	47 c2       	rjmp	.+1166   	; 0x2628 <__fp_round>

0000219a <__subsf3>:
    219a:	50 58       	subi	r21, 0x80	; 128

0000219c <__addsf3>:
    219c:	bb 27       	eor	r27, r27
    219e:	aa 27       	eor	r26, r26
    21a0:	0e d0       	rcall	.+28     	; 0x21be <__addsf3x>
    21a2:	42 c2       	rjmp	.+1156   	; 0x2628 <__fp_round>
    21a4:	0b d2       	rcall	.+1046   	; 0x25bc <__fp_pscA>
    21a6:	30 f0       	brcs	.+12     	; 0x21b4 <__addsf3+0x18>
    21a8:	10 d2       	rcall	.+1056   	; 0x25ca <__fp_pscB>
    21aa:	20 f0       	brcs	.+8      	; 0x21b4 <__addsf3+0x18>
    21ac:	31 f4       	brne	.+12     	; 0x21ba <__addsf3+0x1e>
    21ae:	9f 3f       	cpi	r25, 0xFF	; 255
    21b0:	11 f4       	brne	.+4      	; 0x21b6 <__addsf3+0x1a>
    21b2:	1e f4       	brtc	.+6      	; 0x21ba <__addsf3+0x1e>
    21b4:	db c1       	rjmp	.+950    	; 0x256c <__fp_nan>
    21b6:	0e f4       	brtc	.+2      	; 0x21ba <__addsf3+0x1e>
    21b8:	e0 95       	com	r30
    21ba:	e7 fb       	bst	r30, 7
    21bc:	d1 c1       	rjmp	.+930    	; 0x2560 <__fp_inf>

000021be <__addsf3x>:
    21be:	e9 2f       	mov	r30, r25
    21c0:	55 d2       	rcall	.+1194   	; 0x266c <__fp_split3>
    21c2:	80 f3       	brcs	.-32     	; 0x21a4 <__addsf3+0x8>
    21c4:	ba 17       	cp	r27, r26
    21c6:	62 07       	cpc	r22, r18
    21c8:	73 07       	cpc	r23, r19
    21ca:	84 07       	cpc	r24, r20
    21cc:	95 07       	cpc	r25, r21
    21ce:	18 f0       	brcs	.+6      	; 0x21d6 <__addsf3x+0x18>
    21d0:	71 f4       	brne	.+28     	; 0x21ee <__addsf3x+0x30>
    21d2:	9e f5       	brtc	.+102    	; 0x223a <__addsf3x+0x7c>
    21d4:	6d c2       	rjmp	.+1242   	; 0x26b0 <__fp_zero>
    21d6:	0e f4       	brtc	.+2      	; 0x21da <__addsf3x+0x1c>
    21d8:	e0 95       	com	r30
    21da:	0b 2e       	mov	r0, r27
    21dc:	ba 2f       	mov	r27, r26
    21de:	a0 2d       	mov	r26, r0
    21e0:	0b 01       	movw	r0, r22
    21e2:	b9 01       	movw	r22, r18
    21e4:	90 01       	movw	r18, r0
    21e6:	0c 01       	movw	r0, r24
    21e8:	ca 01       	movw	r24, r20
    21ea:	a0 01       	movw	r20, r0
    21ec:	11 24       	eor	r1, r1
    21ee:	ff 27       	eor	r31, r31
    21f0:	59 1b       	sub	r21, r25
    21f2:	99 f0       	breq	.+38     	; 0x221a <__addsf3x+0x5c>
    21f4:	59 3f       	cpi	r21, 0xF9	; 249
    21f6:	50 f4       	brcc	.+20     	; 0x220c <__addsf3x+0x4e>
    21f8:	50 3e       	cpi	r21, 0xE0	; 224
    21fa:	68 f1       	brcs	.+90     	; 0x2256 <__addsf3x+0x98>
    21fc:	1a 16       	cp	r1, r26
    21fe:	f0 40       	sbci	r31, 0x00	; 0
    2200:	a2 2f       	mov	r26, r18
    2202:	23 2f       	mov	r18, r19
    2204:	34 2f       	mov	r19, r20
    2206:	44 27       	eor	r20, r20
    2208:	58 5f       	subi	r21, 0xF8	; 248
    220a:	f3 cf       	rjmp	.-26     	; 0x21f2 <__addsf3x+0x34>
    220c:	46 95       	lsr	r20
    220e:	37 95       	ror	r19
    2210:	27 95       	ror	r18
    2212:	a7 95       	ror	r26
    2214:	f0 40       	sbci	r31, 0x00	; 0
    2216:	53 95       	inc	r21
    2218:	c9 f7       	brne	.-14     	; 0x220c <__addsf3x+0x4e>
    221a:	7e f4       	brtc	.+30     	; 0x223a <__addsf3x+0x7c>
    221c:	1f 16       	cp	r1, r31
    221e:	ba 0b       	sbc	r27, r26
    2220:	62 0b       	sbc	r22, r18
    2222:	73 0b       	sbc	r23, r19
    2224:	84 0b       	sbc	r24, r20
    2226:	ba f0       	brmi	.+46     	; 0x2256 <__addsf3x+0x98>
    2228:	91 50       	subi	r25, 0x01	; 1
    222a:	a1 f0       	breq	.+40     	; 0x2254 <__addsf3x+0x96>
    222c:	ff 0f       	add	r31, r31
    222e:	bb 1f       	adc	r27, r27
    2230:	66 1f       	adc	r22, r22
    2232:	77 1f       	adc	r23, r23
    2234:	88 1f       	adc	r24, r24
    2236:	c2 f7       	brpl	.-16     	; 0x2228 <__addsf3x+0x6a>
    2238:	0e c0       	rjmp	.+28     	; 0x2256 <__addsf3x+0x98>
    223a:	ba 0f       	add	r27, r26
    223c:	62 1f       	adc	r22, r18
    223e:	73 1f       	adc	r23, r19
    2240:	84 1f       	adc	r24, r20
    2242:	48 f4       	brcc	.+18     	; 0x2256 <__addsf3x+0x98>
    2244:	87 95       	ror	r24
    2246:	77 95       	ror	r23
    2248:	67 95       	ror	r22
    224a:	b7 95       	ror	r27
    224c:	f7 95       	ror	r31
    224e:	9e 3f       	cpi	r25, 0xFE	; 254
    2250:	08 f0       	brcs	.+2      	; 0x2254 <__addsf3x+0x96>
    2252:	b3 cf       	rjmp	.-154    	; 0x21ba <__addsf3+0x1e>
    2254:	93 95       	inc	r25
    2256:	88 0f       	add	r24, r24
    2258:	08 f0       	brcs	.+2      	; 0x225c <__addsf3x+0x9e>
    225a:	99 27       	eor	r25, r25
    225c:	ee 0f       	add	r30, r30
    225e:	97 95       	ror	r25
    2260:	87 95       	ror	r24
    2262:	08 95       	ret
    2264:	ab d1       	rcall	.+854    	; 0x25bc <__fp_pscA>
    2266:	58 f0       	brcs	.+22     	; 0x227e <__addsf3x+0xc0>
    2268:	80 e8       	ldi	r24, 0x80	; 128
    226a:	91 e0       	ldi	r25, 0x01	; 1
    226c:	09 f4       	brne	.+2      	; 0x2270 <__addsf3x+0xb2>
    226e:	9e ef       	ldi	r25, 0xFE	; 254
    2270:	ac d1       	rcall	.+856    	; 0x25ca <__fp_pscB>
    2272:	28 f0       	brcs	.+10     	; 0x227e <__addsf3x+0xc0>
    2274:	40 e8       	ldi	r20, 0x80	; 128
    2276:	51 e0       	ldi	r21, 0x01	; 1
    2278:	59 f4       	brne	.+22     	; 0x2290 <atan2+0xe>
    227a:	5e ef       	ldi	r21, 0xFE	; 254
    227c:	09 c0       	rjmp	.+18     	; 0x2290 <atan2+0xe>
    227e:	76 c1       	rjmp	.+748    	; 0x256c <__fp_nan>
    2280:	17 c2       	rjmp	.+1070   	; 0x26b0 <__fp_zero>

00002282 <atan2>:
    2282:	e9 2f       	mov	r30, r25
    2284:	e0 78       	andi	r30, 0x80	; 128
    2286:	f2 d1       	rcall	.+996    	; 0x266c <__fp_split3>
    2288:	68 f3       	brcs	.-38     	; 0x2264 <__addsf3x+0xa6>
    228a:	09 2e       	mov	r0, r25
    228c:	05 2a       	or	r0, r21
    228e:	c1 f3       	breq	.-16     	; 0x2280 <__addsf3x+0xc2>
    2290:	26 17       	cp	r18, r22
    2292:	37 07       	cpc	r19, r23
    2294:	48 07       	cpc	r20, r24
    2296:	59 07       	cpc	r21, r25
    2298:	38 f0       	brcs	.+14     	; 0x22a8 <atan2+0x26>
    229a:	0e 2e       	mov	r0, r30
    229c:	07 f8       	bld	r0, 7
    229e:	e0 25       	eor	r30, r0
    22a0:	69 f0       	breq	.+26     	; 0x22bc <atan2+0x3a>
    22a2:	e0 25       	eor	r30, r0
    22a4:	e0 64       	ori	r30, 0x40	; 64
    22a6:	0a c0       	rjmp	.+20     	; 0x22bc <atan2+0x3a>
    22a8:	ef 63       	ori	r30, 0x3F	; 63
    22aa:	07 f8       	bld	r0, 7
    22ac:	00 94       	com	r0
    22ae:	07 fa       	bst	r0, 7
    22b0:	db 01       	movw	r26, r22
    22b2:	b9 01       	movw	r22, r18
    22b4:	9d 01       	movw	r18, r26
    22b6:	dc 01       	movw	r26, r24
    22b8:	ca 01       	movw	r24, r20
    22ba:	ad 01       	movw	r20, r26
    22bc:	ef 93       	push	r30
    22be:	4a d0       	rcall	.+148    	; 0x2354 <__divsf3_pse>
    22c0:	b3 d1       	rcall	.+870    	; 0x2628 <__fp_round>
    22c2:	0a d0       	rcall	.+20     	; 0x22d8 <atan>
    22c4:	5f 91       	pop	r21
    22c6:	55 23       	and	r21, r21
    22c8:	31 f0       	breq	.+12     	; 0x22d6 <atan2+0x54>
    22ca:	2b ed       	ldi	r18, 0xDB	; 219
    22cc:	3f e0       	ldi	r19, 0x0F	; 15
    22ce:	49 e4       	ldi	r20, 0x49	; 73
    22d0:	50 fd       	sbrc	r21, 0
    22d2:	49 ec       	ldi	r20, 0xC9	; 201
    22d4:	63 cf       	rjmp	.-314    	; 0x219c <__addsf3>
    22d6:	08 95       	ret

000022d8 <atan>:
    22d8:	df 93       	push	r29
    22da:	dd 27       	eor	r29, r29
    22dc:	b9 2f       	mov	r27, r25
    22de:	bf 77       	andi	r27, 0x7F	; 127
    22e0:	40 e8       	ldi	r20, 0x80	; 128
    22e2:	5f e3       	ldi	r21, 0x3F	; 63
    22e4:	16 16       	cp	r1, r22
    22e6:	17 06       	cpc	r1, r23
    22e8:	48 07       	cpc	r20, r24
    22ea:	5b 07       	cpc	r21, r27
    22ec:	10 f4       	brcc	.+4      	; 0x22f2 <atan+0x1a>
    22ee:	d9 2f       	mov	r29, r25
    22f0:	ea d1       	rcall	.+980    	; 0x26c6 <inverse>
    22f2:	9f 93       	push	r25
    22f4:	8f 93       	push	r24
    22f6:	7f 93       	push	r23
    22f8:	6f 93       	push	r22
    22fa:	f1 d2       	rcall	.+1506   	; 0x28de <square>
    22fc:	ec e8       	ldi	r30, 0x8C	; 140
    22fe:	f0 e0       	ldi	r31, 0x00	; 0
    2300:	38 d1       	rcall	.+624    	; 0x2572 <__fp_powser>
    2302:	92 d1       	rcall	.+804    	; 0x2628 <__fp_round>
    2304:	2f 91       	pop	r18
    2306:	3f 91       	pop	r19
    2308:	4f 91       	pop	r20
    230a:	5f 91       	pop	r21
    230c:	29 d2       	rcall	.+1106   	; 0x2760 <__mulsf3x>
    230e:	dd 23       	and	r29, r29
    2310:	49 f0       	breq	.+18     	; 0x2324 <atan+0x4c>
    2312:	90 58       	subi	r25, 0x80	; 128
    2314:	a2 ea       	ldi	r26, 0xA2	; 162
    2316:	2a ed       	ldi	r18, 0xDA	; 218
    2318:	3f e0       	ldi	r19, 0x0F	; 15
    231a:	49 ec       	ldi	r20, 0xC9	; 201
    231c:	5f e3       	ldi	r21, 0x3F	; 63
    231e:	d0 78       	andi	r29, 0x80	; 128
    2320:	5d 27       	eor	r21, r29
    2322:	4d df       	rcall	.-358    	; 0x21be <__addsf3x>
    2324:	df 91       	pop	r29
    2326:	80 c1       	rjmp	.+768    	; 0x2628 <__fp_round>

00002328 <__cmpsf2>:
    2328:	f7 d0       	rcall	.+494    	; 0x2518 <__fp_cmp>
    232a:	08 f4       	brcc	.+2      	; 0x232e <__cmpsf2+0x6>
    232c:	81 e0       	ldi	r24, 0x01	; 1
    232e:	08 95       	ret

00002330 <cos>:
    2330:	54 d1       	rcall	.+680    	; 0x25da <__fp_rempio2>
    2332:	e3 95       	inc	r30
    2334:	8a c1       	rjmp	.+788    	; 0x264a <__fp_sinus>

00002336 <__divsf3>:
    2336:	0c d0       	rcall	.+24     	; 0x2350 <__divsf3x>
    2338:	77 c1       	rjmp	.+750    	; 0x2628 <__fp_round>
    233a:	47 d1       	rcall	.+654    	; 0x25ca <__fp_pscB>
    233c:	40 f0       	brcs	.+16     	; 0x234e <__divsf3+0x18>
    233e:	3e d1       	rcall	.+636    	; 0x25bc <__fp_pscA>
    2340:	30 f0       	brcs	.+12     	; 0x234e <__divsf3+0x18>
    2342:	21 f4       	brne	.+8      	; 0x234c <__divsf3+0x16>
    2344:	5f 3f       	cpi	r21, 0xFF	; 255
    2346:	19 f0       	breq	.+6      	; 0x234e <__divsf3+0x18>
    2348:	0b c1       	rjmp	.+534    	; 0x2560 <__fp_inf>
    234a:	51 11       	cpse	r21, r1
    234c:	b2 c1       	rjmp	.+868    	; 0x26b2 <__fp_szero>
    234e:	0e c1       	rjmp	.+540    	; 0x256c <__fp_nan>

00002350 <__divsf3x>:
    2350:	8d d1       	rcall	.+794    	; 0x266c <__fp_split3>
    2352:	98 f3       	brcs	.-26     	; 0x233a <__divsf3+0x4>

00002354 <__divsf3_pse>:
    2354:	99 23       	and	r25, r25
    2356:	c9 f3       	breq	.-14     	; 0x234a <__divsf3+0x14>
    2358:	55 23       	and	r21, r21
    235a:	b1 f3       	breq	.-20     	; 0x2348 <__divsf3+0x12>
    235c:	95 1b       	sub	r25, r21
    235e:	55 0b       	sbc	r21, r21
    2360:	bb 27       	eor	r27, r27
    2362:	aa 27       	eor	r26, r26
    2364:	62 17       	cp	r22, r18
    2366:	73 07       	cpc	r23, r19
    2368:	84 07       	cpc	r24, r20
    236a:	38 f0       	brcs	.+14     	; 0x237a <__divsf3_pse+0x26>
    236c:	9f 5f       	subi	r25, 0xFF	; 255
    236e:	5f 4f       	sbci	r21, 0xFF	; 255
    2370:	22 0f       	add	r18, r18
    2372:	33 1f       	adc	r19, r19
    2374:	44 1f       	adc	r20, r20
    2376:	aa 1f       	adc	r26, r26
    2378:	a9 f3       	breq	.-22     	; 0x2364 <__divsf3_pse+0x10>
    237a:	33 d0       	rcall	.+102    	; 0x23e2 <__divsf3_pse+0x8e>
    237c:	0e 2e       	mov	r0, r30
    237e:	3a f0       	brmi	.+14     	; 0x238e <__divsf3_pse+0x3a>
    2380:	e0 e8       	ldi	r30, 0x80	; 128
    2382:	30 d0       	rcall	.+96     	; 0x23e4 <__divsf3_pse+0x90>
    2384:	91 50       	subi	r25, 0x01	; 1
    2386:	50 40       	sbci	r21, 0x00	; 0
    2388:	e6 95       	lsr	r30
    238a:	00 1c       	adc	r0, r0
    238c:	ca f7       	brpl	.-14     	; 0x2380 <__divsf3_pse+0x2c>
    238e:	29 d0       	rcall	.+82     	; 0x23e2 <__divsf3_pse+0x8e>
    2390:	fe 2f       	mov	r31, r30
    2392:	27 d0       	rcall	.+78     	; 0x23e2 <__divsf3_pse+0x8e>
    2394:	66 0f       	add	r22, r22
    2396:	77 1f       	adc	r23, r23
    2398:	88 1f       	adc	r24, r24
    239a:	bb 1f       	adc	r27, r27
    239c:	26 17       	cp	r18, r22
    239e:	37 07       	cpc	r19, r23
    23a0:	48 07       	cpc	r20, r24
    23a2:	ab 07       	cpc	r26, r27
    23a4:	b0 e8       	ldi	r27, 0x80	; 128
    23a6:	09 f0       	breq	.+2      	; 0x23aa <__divsf3_pse+0x56>
    23a8:	bb 0b       	sbc	r27, r27
    23aa:	80 2d       	mov	r24, r0
    23ac:	bf 01       	movw	r22, r30
    23ae:	ff 27       	eor	r31, r31
    23b0:	93 58       	subi	r25, 0x83	; 131
    23b2:	5f 4f       	sbci	r21, 0xFF	; 255
    23b4:	2a f0       	brmi	.+10     	; 0x23c0 <__divsf3_pse+0x6c>
    23b6:	9e 3f       	cpi	r25, 0xFE	; 254
    23b8:	51 05       	cpc	r21, r1
    23ba:	68 f0       	brcs	.+26     	; 0x23d6 <__divsf3_pse+0x82>
    23bc:	d1 c0       	rjmp	.+418    	; 0x2560 <__fp_inf>
    23be:	79 c1       	rjmp	.+754    	; 0x26b2 <__fp_szero>
    23c0:	5f 3f       	cpi	r21, 0xFF	; 255
    23c2:	ec f3       	brlt	.-6      	; 0x23be <__divsf3_pse+0x6a>
    23c4:	98 3e       	cpi	r25, 0xE8	; 232
    23c6:	dc f3       	brlt	.-10     	; 0x23be <__divsf3_pse+0x6a>
    23c8:	86 95       	lsr	r24
    23ca:	77 95       	ror	r23
    23cc:	67 95       	ror	r22
    23ce:	b7 95       	ror	r27
    23d0:	f7 95       	ror	r31
    23d2:	9f 5f       	subi	r25, 0xFF	; 255
    23d4:	c9 f7       	brne	.-14     	; 0x23c8 <__divsf3_pse+0x74>
    23d6:	88 0f       	add	r24, r24
    23d8:	91 1d       	adc	r25, r1
    23da:	96 95       	lsr	r25
    23dc:	87 95       	ror	r24
    23de:	97 f9       	bld	r25, 7
    23e0:	08 95       	ret
    23e2:	e1 e0       	ldi	r30, 0x01	; 1
    23e4:	66 0f       	add	r22, r22
    23e6:	77 1f       	adc	r23, r23
    23e8:	88 1f       	adc	r24, r24
    23ea:	bb 1f       	adc	r27, r27
    23ec:	62 17       	cp	r22, r18
    23ee:	73 07       	cpc	r23, r19
    23f0:	84 07       	cpc	r24, r20
    23f2:	ba 07       	cpc	r27, r26
    23f4:	20 f0       	brcs	.+8      	; 0x23fe <__divsf3_pse+0xaa>
    23f6:	62 1b       	sub	r22, r18
    23f8:	73 0b       	sbc	r23, r19
    23fa:	84 0b       	sbc	r24, r20
    23fc:	ba 0b       	sbc	r27, r26
    23fe:	ee 1f       	adc	r30, r30
    2400:	88 f7       	brcc	.-30     	; 0x23e4 <__divsf3_pse+0x90>
    2402:	e0 95       	com	r30
    2404:	08 95       	ret

00002406 <__fixsfsi>:
    2406:	04 d0       	rcall	.+8      	; 0x2410 <__fixunssfsi>
    2408:	68 94       	set
    240a:	b1 11       	cpse	r27, r1
    240c:	52 c1       	rjmp	.+676    	; 0x26b2 <__fp_szero>
    240e:	08 95       	ret

00002410 <__fixunssfsi>:
    2410:	35 d1       	rcall	.+618    	; 0x267c <__fp_splitA>
    2412:	88 f0       	brcs	.+34     	; 0x2436 <__fixunssfsi+0x26>
    2414:	9f 57       	subi	r25, 0x7F	; 127
    2416:	90 f0       	brcs	.+36     	; 0x243c <__fixunssfsi+0x2c>
    2418:	b9 2f       	mov	r27, r25
    241a:	99 27       	eor	r25, r25
    241c:	b7 51       	subi	r27, 0x17	; 23
    241e:	a0 f0       	brcs	.+40     	; 0x2448 <__fixunssfsi+0x38>
    2420:	d1 f0       	breq	.+52     	; 0x2456 <__fixunssfsi+0x46>
    2422:	66 0f       	add	r22, r22
    2424:	77 1f       	adc	r23, r23
    2426:	88 1f       	adc	r24, r24
    2428:	99 1f       	adc	r25, r25
    242a:	1a f0       	brmi	.+6      	; 0x2432 <__fixunssfsi+0x22>
    242c:	ba 95       	dec	r27
    242e:	c9 f7       	brne	.-14     	; 0x2422 <__fixunssfsi+0x12>
    2430:	12 c0       	rjmp	.+36     	; 0x2456 <__fixunssfsi+0x46>
    2432:	b1 30       	cpi	r27, 0x01	; 1
    2434:	81 f0       	breq	.+32     	; 0x2456 <__fixunssfsi+0x46>
    2436:	3c d1       	rcall	.+632    	; 0x26b0 <__fp_zero>
    2438:	b1 e0       	ldi	r27, 0x01	; 1
    243a:	08 95       	ret
    243c:	39 c1       	rjmp	.+626    	; 0x26b0 <__fp_zero>
    243e:	67 2f       	mov	r22, r23
    2440:	78 2f       	mov	r23, r24
    2442:	88 27       	eor	r24, r24
    2444:	b8 5f       	subi	r27, 0xF8	; 248
    2446:	39 f0       	breq	.+14     	; 0x2456 <__fixunssfsi+0x46>
    2448:	b9 3f       	cpi	r27, 0xF9	; 249
    244a:	cc f3       	brlt	.-14     	; 0x243e <__fixunssfsi+0x2e>
    244c:	86 95       	lsr	r24
    244e:	77 95       	ror	r23
    2450:	67 95       	ror	r22
    2452:	b3 95       	inc	r27
    2454:	d9 f7       	brne	.-10     	; 0x244c <__fixunssfsi+0x3c>
    2456:	3e f4       	brtc	.+14     	; 0x2466 <__fixunssfsi+0x56>
    2458:	90 95       	com	r25
    245a:	80 95       	com	r24
    245c:	70 95       	com	r23
    245e:	61 95       	neg	r22
    2460:	7f 4f       	sbci	r23, 0xFF	; 255
    2462:	8f 4f       	sbci	r24, 0xFF	; 255
    2464:	9f 4f       	sbci	r25, 0xFF	; 255
    2466:	08 95       	ret

00002468 <__floatunsisf>:
    2468:	e8 94       	clt
    246a:	09 c0       	rjmp	.+18     	; 0x247e <__floatsisf+0x12>

0000246c <__floatsisf>:
    246c:	97 fb       	bst	r25, 7
    246e:	3e f4       	brtc	.+14     	; 0x247e <__floatsisf+0x12>
    2470:	90 95       	com	r25
    2472:	80 95       	com	r24
    2474:	70 95       	com	r23
    2476:	61 95       	neg	r22
    2478:	7f 4f       	sbci	r23, 0xFF	; 255
    247a:	8f 4f       	sbci	r24, 0xFF	; 255
    247c:	9f 4f       	sbci	r25, 0xFF	; 255
    247e:	99 23       	and	r25, r25
    2480:	a9 f0       	breq	.+42     	; 0x24ac <__floatsisf+0x40>
    2482:	f9 2f       	mov	r31, r25
    2484:	96 e9       	ldi	r25, 0x96	; 150
    2486:	bb 27       	eor	r27, r27
    2488:	93 95       	inc	r25
    248a:	f6 95       	lsr	r31
    248c:	87 95       	ror	r24
    248e:	77 95       	ror	r23
    2490:	67 95       	ror	r22
    2492:	b7 95       	ror	r27
    2494:	f1 11       	cpse	r31, r1
    2496:	f8 cf       	rjmp	.-16     	; 0x2488 <__floatsisf+0x1c>
    2498:	fa f4       	brpl	.+62     	; 0x24d8 <__floatsisf+0x6c>
    249a:	bb 0f       	add	r27, r27
    249c:	11 f4       	brne	.+4      	; 0x24a2 <__floatsisf+0x36>
    249e:	60 ff       	sbrs	r22, 0
    24a0:	1b c0       	rjmp	.+54     	; 0x24d8 <__floatsisf+0x6c>
    24a2:	6f 5f       	subi	r22, 0xFF	; 255
    24a4:	7f 4f       	sbci	r23, 0xFF	; 255
    24a6:	8f 4f       	sbci	r24, 0xFF	; 255
    24a8:	9f 4f       	sbci	r25, 0xFF	; 255
    24aa:	16 c0       	rjmp	.+44     	; 0x24d8 <__floatsisf+0x6c>
    24ac:	88 23       	and	r24, r24
    24ae:	11 f0       	breq	.+4      	; 0x24b4 <__floatsisf+0x48>
    24b0:	96 e9       	ldi	r25, 0x96	; 150
    24b2:	11 c0       	rjmp	.+34     	; 0x24d6 <__floatsisf+0x6a>
    24b4:	77 23       	and	r23, r23
    24b6:	21 f0       	breq	.+8      	; 0x24c0 <__floatsisf+0x54>
    24b8:	9e e8       	ldi	r25, 0x8E	; 142
    24ba:	87 2f       	mov	r24, r23
    24bc:	76 2f       	mov	r23, r22
    24be:	05 c0       	rjmp	.+10     	; 0x24ca <__floatsisf+0x5e>
    24c0:	66 23       	and	r22, r22
    24c2:	71 f0       	breq	.+28     	; 0x24e0 <__floatsisf+0x74>
    24c4:	96 e8       	ldi	r25, 0x86	; 134
    24c6:	86 2f       	mov	r24, r22
    24c8:	70 e0       	ldi	r23, 0x00	; 0
    24ca:	60 e0       	ldi	r22, 0x00	; 0
    24cc:	2a f0       	brmi	.+10     	; 0x24d8 <__floatsisf+0x6c>
    24ce:	9a 95       	dec	r25
    24d0:	66 0f       	add	r22, r22
    24d2:	77 1f       	adc	r23, r23
    24d4:	88 1f       	adc	r24, r24
    24d6:	da f7       	brpl	.-10     	; 0x24ce <__floatsisf+0x62>
    24d8:	88 0f       	add	r24, r24
    24da:	96 95       	lsr	r25
    24dc:	87 95       	ror	r24
    24de:	97 f9       	bld	r25, 7
    24e0:	08 95       	ret

000024e2 <__fp_arccos>:
    24e2:	df 93       	push	r29
    24e4:	cf 93       	push	r28
    24e6:	1f 93       	push	r17
    24e8:	0f 93       	push	r16
    24ea:	8b 01       	movw	r16, r22
    24ec:	ec 01       	movw	r28, r24
    24ee:	e9 eb       	ldi	r30, 0xB9	; 185
    24f0:	f0 e0       	ldi	r31, 0x00	; 0
    24f2:	3f d0       	rcall	.+126    	; 0x2572 <__fp_powser>
    24f4:	99 d0       	rcall	.+306    	; 0x2628 <__fp_round>
    24f6:	98 01       	movw	r18, r16
    24f8:	ae 01       	movw	r20, r28
    24fa:	8b 01       	movw	r16, r22
    24fc:	ec 01       	movw	r28, r24
    24fe:	60 e0       	ldi	r22, 0x00	; 0
    2500:	70 e0       	ldi	r23, 0x00	; 0
    2502:	80 e8       	ldi	r24, 0x80	; 128
    2504:	9f e3       	ldi	r25, 0x3F	; 63
    2506:	49 de       	rcall	.-878    	; 0x219a <__subsf3>
    2508:	ac d1       	rcall	.+856    	; 0x2862 <sqrt>
    250a:	98 01       	movw	r18, r16
    250c:	ae 01       	movw	r20, r28
    250e:	0f 91       	pop	r16
    2510:	1f 91       	pop	r17
    2512:	cf 91       	pop	r28
    2514:	df 91       	pop	r29
    2516:	24 c1       	rjmp	.+584    	; 0x2760 <__mulsf3x>

00002518 <__fp_cmp>:
    2518:	99 0f       	add	r25, r25
    251a:	00 08       	sbc	r0, r0
    251c:	55 0f       	add	r21, r21
    251e:	aa 0b       	sbc	r26, r26
    2520:	e0 e8       	ldi	r30, 0x80	; 128
    2522:	fe ef       	ldi	r31, 0xFE	; 254
    2524:	16 16       	cp	r1, r22
    2526:	17 06       	cpc	r1, r23
    2528:	e8 07       	cpc	r30, r24
    252a:	f9 07       	cpc	r31, r25
    252c:	c0 f0       	brcs	.+48     	; 0x255e <__fp_cmp+0x46>
    252e:	12 16       	cp	r1, r18
    2530:	13 06       	cpc	r1, r19
    2532:	e4 07       	cpc	r30, r20
    2534:	f5 07       	cpc	r31, r21
    2536:	98 f0       	brcs	.+38     	; 0x255e <__fp_cmp+0x46>
    2538:	62 1b       	sub	r22, r18
    253a:	73 0b       	sbc	r23, r19
    253c:	84 0b       	sbc	r24, r20
    253e:	95 0b       	sbc	r25, r21
    2540:	39 f4       	brne	.+14     	; 0x2550 <__fp_cmp+0x38>
    2542:	0a 26       	eor	r0, r26
    2544:	61 f0       	breq	.+24     	; 0x255e <__fp_cmp+0x46>
    2546:	23 2b       	or	r18, r19
    2548:	24 2b       	or	r18, r20
    254a:	25 2b       	or	r18, r21
    254c:	21 f4       	brne	.+8      	; 0x2556 <__fp_cmp+0x3e>
    254e:	08 95       	ret
    2550:	0a 26       	eor	r0, r26
    2552:	09 f4       	brne	.+2      	; 0x2556 <__fp_cmp+0x3e>
    2554:	a1 40       	sbci	r26, 0x01	; 1
    2556:	a6 95       	lsr	r26
    2558:	8f ef       	ldi	r24, 0xFF	; 255
    255a:	81 1d       	adc	r24, r1
    255c:	81 1d       	adc	r24, r1
    255e:	08 95       	ret

00002560 <__fp_inf>:
    2560:	97 f9       	bld	r25, 7
    2562:	9f 67       	ori	r25, 0x7F	; 127
    2564:	80 e8       	ldi	r24, 0x80	; 128
    2566:	70 e0       	ldi	r23, 0x00	; 0
    2568:	60 e0       	ldi	r22, 0x00	; 0
    256a:	08 95       	ret

0000256c <__fp_nan>:
    256c:	9f ef       	ldi	r25, 0xFF	; 255
    256e:	80 ec       	ldi	r24, 0xC0	; 192
    2570:	08 95       	ret

00002572 <__fp_powser>:
    2572:	df 93       	push	r29
    2574:	cf 93       	push	r28
    2576:	1f 93       	push	r17
    2578:	0f 93       	push	r16
    257a:	ff 92       	push	r15
    257c:	ef 92       	push	r14
    257e:	df 92       	push	r13
    2580:	7b 01       	movw	r14, r22
    2582:	8c 01       	movw	r16, r24
    2584:	68 94       	set
    2586:	05 c0       	rjmp	.+10     	; 0x2592 <__fp_powser+0x20>
    2588:	da 2e       	mov	r13, r26
    258a:	ef 01       	movw	r28, r30
    258c:	e9 d0       	rcall	.+466    	; 0x2760 <__mulsf3x>
    258e:	fe 01       	movw	r30, r28
    2590:	e8 94       	clt
    2592:	a5 91       	lpm	r26, Z+
    2594:	25 91       	lpm	r18, Z+
    2596:	35 91       	lpm	r19, Z+
    2598:	45 91       	lpm	r20, Z+
    259a:	55 91       	lpm	r21, Z+
    259c:	ae f3       	brts	.-22     	; 0x2588 <__fp_powser+0x16>
    259e:	ef 01       	movw	r28, r30
    25a0:	0e de       	rcall	.-996    	; 0x21be <__addsf3x>
    25a2:	fe 01       	movw	r30, r28
    25a4:	97 01       	movw	r18, r14
    25a6:	a8 01       	movw	r20, r16
    25a8:	da 94       	dec	r13
    25aa:	79 f7       	brne	.-34     	; 0x258a <__fp_powser+0x18>
    25ac:	df 90       	pop	r13
    25ae:	ef 90       	pop	r14
    25b0:	ff 90       	pop	r15
    25b2:	0f 91       	pop	r16
    25b4:	1f 91       	pop	r17
    25b6:	cf 91       	pop	r28
    25b8:	df 91       	pop	r29
    25ba:	08 95       	ret

000025bc <__fp_pscA>:
    25bc:	00 24       	eor	r0, r0
    25be:	0a 94       	dec	r0
    25c0:	16 16       	cp	r1, r22
    25c2:	17 06       	cpc	r1, r23
    25c4:	18 06       	cpc	r1, r24
    25c6:	09 06       	cpc	r0, r25
    25c8:	08 95       	ret

000025ca <__fp_pscB>:
    25ca:	00 24       	eor	r0, r0
    25cc:	0a 94       	dec	r0
    25ce:	12 16       	cp	r1, r18
    25d0:	13 06       	cpc	r1, r19
    25d2:	14 06       	cpc	r1, r20
    25d4:	05 06       	cpc	r0, r21
    25d6:	08 95       	ret
    25d8:	c9 cf       	rjmp	.-110    	; 0x256c <__fp_nan>

000025da <__fp_rempio2>:
    25da:	50 d0       	rcall	.+160    	; 0x267c <__fp_splitA>
    25dc:	e8 f3       	brcs	.-6      	; 0x25d8 <__fp_pscB+0xe>
    25de:	e8 94       	clt
    25e0:	e0 e0       	ldi	r30, 0x00	; 0
    25e2:	bb 27       	eor	r27, r27
    25e4:	9f 57       	subi	r25, 0x7F	; 127
    25e6:	f0 f0       	brcs	.+60     	; 0x2624 <__fp_rempio2+0x4a>
    25e8:	2a ed       	ldi	r18, 0xDA	; 218
    25ea:	3f e0       	ldi	r19, 0x0F	; 15
    25ec:	49 ec       	ldi	r20, 0xC9	; 201
    25ee:	06 c0       	rjmp	.+12     	; 0x25fc <__fp_rempio2+0x22>
    25f0:	ee 0f       	add	r30, r30
    25f2:	bb 0f       	add	r27, r27
    25f4:	66 1f       	adc	r22, r22
    25f6:	77 1f       	adc	r23, r23
    25f8:	88 1f       	adc	r24, r24
    25fa:	28 f0       	brcs	.+10     	; 0x2606 <__fp_rempio2+0x2c>
    25fc:	b2 3a       	cpi	r27, 0xA2	; 162
    25fe:	62 07       	cpc	r22, r18
    2600:	73 07       	cpc	r23, r19
    2602:	84 07       	cpc	r24, r20
    2604:	28 f0       	brcs	.+10     	; 0x2610 <__fp_rempio2+0x36>
    2606:	b2 5a       	subi	r27, 0xA2	; 162
    2608:	62 0b       	sbc	r22, r18
    260a:	73 0b       	sbc	r23, r19
    260c:	84 0b       	sbc	r24, r20
    260e:	e3 95       	inc	r30
    2610:	9a 95       	dec	r25
    2612:	72 f7       	brpl	.-36     	; 0x25f0 <__fp_rempio2+0x16>
    2614:	80 38       	cpi	r24, 0x80	; 128
    2616:	30 f4       	brcc	.+12     	; 0x2624 <__fp_rempio2+0x4a>
    2618:	9a 95       	dec	r25
    261a:	bb 0f       	add	r27, r27
    261c:	66 1f       	adc	r22, r22
    261e:	77 1f       	adc	r23, r23
    2620:	88 1f       	adc	r24, r24
    2622:	d2 f7       	brpl	.-12     	; 0x2618 <__fp_rempio2+0x3e>
    2624:	90 48       	sbci	r25, 0x80	; 128
    2626:	7b c1       	rjmp	.+758    	; 0x291e <__fp_mpack_finite>

00002628 <__fp_round>:
    2628:	09 2e       	mov	r0, r25
    262a:	03 94       	inc	r0
    262c:	00 0c       	add	r0, r0
    262e:	11 f4       	brne	.+4      	; 0x2634 <__fp_round+0xc>
    2630:	88 23       	and	r24, r24
    2632:	52 f0       	brmi	.+20     	; 0x2648 <__fp_round+0x20>
    2634:	bb 0f       	add	r27, r27
    2636:	40 f4       	brcc	.+16     	; 0x2648 <__fp_round+0x20>
    2638:	bf 2b       	or	r27, r31
    263a:	11 f4       	brne	.+4      	; 0x2640 <__fp_round+0x18>
    263c:	60 ff       	sbrs	r22, 0
    263e:	04 c0       	rjmp	.+8      	; 0x2648 <__fp_round+0x20>
    2640:	6f 5f       	subi	r22, 0xFF	; 255
    2642:	7f 4f       	sbci	r23, 0xFF	; 255
    2644:	8f 4f       	sbci	r24, 0xFF	; 255
    2646:	9f 4f       	sbci	r25, 0xFF	; 255
    2648:	08 95       	ret

0000264a <__fp_sinus>:
    264a:	ef 93       	push	r30
    264c:	e0 ff       	sbrs	r30, 0
    264e:	06 c0       	rjmp	.+12     	; 0x265c <__fp_sinus+0x12>
    2650:	a2 ea       	ldi	r26, 0xA2	; 162
    2652:	2a ed       	ldi	r18, 0xDA	; 218
    2654:	3f e0       	ldi	r19, 0x0F	; 15
    2656:	49 ec       	ldi	r20, 0xC9	; 201
    2658:	5f eb       	ldi	r21, 0xBF	; 191
    265a:	b1 dd       	rcall	.-1182   	; 0x21be <__addsf3x>
    265c:	e5 df       	rcall	.-54     	; 0x2628 <__fp_round>
    265e:	0f 90       	pop	r0
    2660:	03 94       	inc	r0
    2662:	01 fc       	sbrc	r0, 1
    2664:	90 58       	subi	r25, 0x80	; 128
    2666:	e1 ee       	ldi	r30, 0xE1	; 225
    2668:	f0 e0       	ldi	r31, 0x00	; 0
    266a:	6c c1       	rjmp	.+728    	; 0x2944 <__fp_powsodd>

0000266c <__fp_split3>:
    266c:	57 fd       	sbrc	r21, 7
    266e:	90 58       	subi	r25, 0x80	; 128
    2670:	44 0f       	add	r20, r20
    2672:	55 1f       	adc	r21, r21
    2674:	59 f0       	breq	.+22     	; 0x268c <__fp_splitA+0x10>
    2676:	5f 3f       	cpi	r21, 0xFF	; 255
    2678:	71 f0       	breq	.+28     	; 0x2696 <__fp_splitA+0x1a>
    267a:	47 95       	ror	r20

0000267c <__fp_splitA>:
    267c:	88 0f       	add	r24, r24
    267e:	97 fb       	bst	r25, 7
    2680:	99 1f       	adc	r25, r25
    2682:	61 f0       	breq	.+24     	; 0x269c <__fp_splitA+0x20>
    2684:	9f 3f       	cpi	r25, 0xFF	; 255
    2686:	79 f0       	breq	.+30     	; 0x26a6 <__fp_splitA+0x2a>
    2688:	87 95       	ror	r24
    268a:	08 95       	ret
    268c:	12 16       	cp	r1, r18
    268e:	13 06       	cpc	r1, r19
    2690:	14 06       	cpc	r1, r20
    2692:	55 1f       	adc	r21, r21
    2694:	f2 cf       	rjmp	.-28     	; 0x267a <__fp_split3+0xe>
    2696:	46 95       	lsr	r20
    2698:	f1 df       	rcall	.-30     	; 0x267c <__fp_splitA>
    269a:	08 c0       	rjmp	.+16     	; 0x26ac <__fp_splitA+0x30>
    269c:	16 16       	cp	r1, r22
    269e:	17 06       	cpc	r1, r23
    26a0:	18 06       	cpc	r1, r24
    26a2:	99 1f       	adc	r25, r25
    26a4:	f1 cf       	rjmp	.-30     	; 0x2688 <__fp_splitA+0xc>
    26a6:	86 95       	lsr	r24
    26a8:	71 05       	cpc	r23, r1
    26aa:	61 05       	cpc	r22, r1
    26ac:	08 94       	sec
    26ae:	08 95       	ret

000026b0 <__fp_zero>:
    26b0:	e8 94       	clt

000026b2 <__fp_szero>:
    26b2:	bb 27       	eor	r27, r27
    26b4:	66 27       	eor	r22, r22
    26b6:	77 27       	eor	r23, r23
    26b8:	cb 01       	movw	r24, r22
    26ba:	97 f9       	bld	r25, 7
    26bc:	08 95       	ret

000026be <__gesf2>:
    26be:	2c df       	rcall	.-424    	; 0x2518 <__fp_cmp>
    26c0:	08 f4       	brcc	.+2      	; 0x26c4 <__gesf2+0x6>
    26c2:	8f ef       	ldi	r24, 0xFF	; 255
    26c4:	08 95       	ret

000026c6 <inverse>:
    26c6:	9b 01       	movw	r18, r22
    26c8:	ac 01       	movw	r20, r24
    26ca:	60 e0       	ldi	r22, 0x00	; 0
    26cc:	70 e0       	ldi	r23, 0x00	; 0
    26ce:	80 e8       	ldi	r24, 0x80	; 128
    26d0:	9f e3       	ldi	r25, 0x3F	; 63
    26d2:	31 ce       	rjmp	.-926    	; 0x2336 <__divsf3>

000026d4 <lrint>:
    26d4:	d3 df       	rcall	.-90     	; 0x267c <__fp_splitA>
    26d6:	a8 f1       	brcs	.+106    	; 0x2742 <lrint+0x6e>
    26d8:	9e 57       	subi	r25, 0x7E	; 126
    26da:	a8 f1       	brcs	.+106    	; 0x2746 <lrint+0x72>
    26dc:	98 51       	subi	r25, 0x18	; 24
    26de:	60 f0       	brcs	.+24     	; 0x26f8 <lrint+0x24>
    26e0:	39 f1       	breq	.+78     	; 0x2730 <lrint+0x5c>
    26e2:	98 30       	cpi	r25, 0x08	; 8
    26e4:	70 f5       	brcc	.+92     	; 0x2742 <lrint+0x6e>
    26e6:	09 2e       	mov	r0, r25
    26e8:	99 27       	eor	r25, r25
    26ea:	66 0f       	add	r22, r22
    26ec:	77 1f       	adc	r23, r23
    26ee:	88 1f       	adc	r24, r24
    26f0:	99 1f       	adc	r25, r25
    26f2:	0a 94       	dec	r0
    26f4:	d1 f7       	brne	.-12     	; 0x26ea <lrint+0x16>
    26f6:	1c c0       	rjmp	.+56     	; 0x2730 <lrint+0x5c>
    26f8:	bb 27       	eor	r27, r27
    26fa:	99 3f       	cpi	r25, 0xF9	; 249
    26fc:	4c f4       	brge	.+18     	; 0x2710 <lrint+0x3c>
    26fe:	b1 11       	cpse	r27, r1
    2700:	b1 e0       	ldi	r27, 0x01	; 1
    2702:	b6 2b       	or	r27, r22
    2704:	67 2f       	mov	r22, r23
    2706:	78 2f       	mov	r23, r24
    2708:	88 27       	eor	r24, r24
    270a:	98 5f       	subi	r25, 0xF8	; 248
    270c:	b1 f7       	brne	.-20     	; 0x26fa <lrint+0x26>
    270e:	08 c0       	rjmp	.+16     	; 0x2720 <lrint+0x4c>
    2710:	86 95       	lsr	r24
    2712:	77 95       	ror	r23
    2714:	67 95       	ror	r22
    2716:	b7 95       	ror	r27
    2718:	08 f4       	brcc	.+2      	; 0x271c <lrint+0x48>
    271a:	b1 60       	ori	r27, 0x01	; 1
    271c:	93 95       	inc	r25
    271e:	c1 f7       	brne	.-16     	; 0x2710 <lrint+0x3c>
    2720:	bb 0f       	add	r27, r27
    2722:	30 f4       	brcc	.+12     	; 0x2730 <lrint+0x5c>
    2724:	11 f4       	brne	.+4      	; 0x272a <lrint+0x56>
    2726:	60 ff       	sbrs	r22, 0
    2728:	03 c0       	rjmp	.+6      	; 0x2730 <lrint+0x5c>
    272a:	6f 5f       	subi	r22, 0xFF	; 255
    272c:	7f 4f       	sbci	r23, 0xFF	; 255
    272e:	8f 4f       	sbci	r24, 0xFF	; 255
    2730:	3e f4       	brtc	.+14     	; 0x2740 <lrint+0x6c>
    2732:	90 95       	com	r25
    2734:	80 95       	com	r24
    2736:	70 95       	com	r23
    2738:	61 95       	neg	r22
    273a:	7f 4f       	sbci	r23, 0xFF	; 255
    273c:	8f 4f       	sbci	r24, 0xFF	; 255
    273e:	9f 4f       	sbci	r25, 0xFF	; 255
    2740:	08 95       	ret
    2742:	68 94       	set
    2744:	b6 cf       	rjmp	.-148    	; 0x26b2 <__fp_szero>
    2746:	b4 cf       	rjmp	.-152    	; 0x26b0 <__fp_zero>

00002748 <__mulsf3>:
    2748:	0b d0       	rcall	.+22     	; 0x2760 <__mulsf3x>
    274a:	6e cf       	rjmp	.-292    	; 0x2628 <__fp_round>
    274c:	37 df       	rcall	.-402    	; 0x25bc <__fp_pscA>
    274e:	28 f0       	brcs	.+10     	; 0x275a <__mulsf3+0x12>
    2750:	3c df       	rcall	.-392    	; 0x25ca <__fp_pscB>
    2752:	18 f0       	brcs	.+6      	; 0x275a <__mulsf3+0x12>
    2754:	95 23       	and	r25, r21
    2756:	09 f0       	breq	.+2      	; 0x275a <__mulsf3+0x12>
    2758:	03 cf       	rjmp	.-506    	; 0x2560 <__fp_inf>
    275a:	08 cf       	rjmp	.-496    	; 0x256c <__fp_nan>
    275c:	11 24       	eor	r1, r1
    275e:	a9 cf       	rjmp	.-174    	; 0x26b2 <__fp_szero>

00002760 <__mulsf3x>:
    2760:	85 df       	rcall	.-246    	; 0x266c <__fp_split3>
    2762:	a0 f3       	brcs	.-24     	; 0x274c <__mulsf3+0x4>

00002764 <__mulsf3_pse>:
    2764:	95 9f       	mul	r25, r21
    2766:	d1 f3       	breq	.-12     	; 0x275c <__mulsf3+0x14>
    2768:	95 0f       	add	r25, r21
    276a:	50 e0       	ldi	r21, 0x00	; 0
    276c:	55 1f       	adc	r21, r21
    276e:	62 9f       	mul	r22, r18
    2770:	f0 01       	movw	r30, r0
    2772:	72 9f       	mul	r23, r18
    2774:	bb 27       	eor	r27, r27
    2776:	f0 0d       	add	r31, r0
    2778:	b1 1d       	adc	r27, r1
    277a:	63 9f       	mul	r22, r19
    277c:	aa 27       	eor	r26, r26
    277e:	f0 0d       	add	r31, r0
    2780:	b1 1d       	adc	r27, r1
    2782:	aa 1f       	adc	r26, r26
    2784:	64 9f       	mul	r22, r20
    2786:	66 27       	eor	r22, r22
    2788:	b0 0d       	add	r27, r0
    278a:	a1 1d       	adc	r26, r1
    278c:	66 1f       	adc	r22, r22
    278e:	82 9f       	mul	r24, r18
    2790:	22 27       	eor	r18, r18
    2792:	b0 0d       	add	r27, r0
    2794:	a1 1d       	adc	r26, r1
    2796:	62 1f       	adc	r22, r18
    2798:	73 9f       	mul	r23, r19
    279a:	b0 0d       	add	r27, r0
    279c:	a1 1d       	adc	r26, r1
    279e:	62 1f       	adc	r22, r18
    27a0:	83 9f       	mul	r24, r19
    27a2:	a0 0d       	add	r26, r0
    27a4:	61 1d       	adc	r22, r1
    27a6:	22 1f       	adc	r18, r18
    27a8:	74 9f       	mul	r23, r20
    27aa:	33 27       	eor	r19, r19
    27ac:	a0 0d       	add	r26, r0
    27ae:	61 1d       	adc	r22, r1
    27b0:	23 1f       	adc	r18, r19
    27b2:	84 9f       	mul	r24, r20
    27b4:	60 0d       	add	r22, r0
    27b6:	21 1d       	adc	r18, r1
    27b8:	82 2f       	mov	r24, r18
    27ba:	76 2f       	mov	r23, r22
    27bc:	6a 2f       	mov	r22, r26
    27be:	11 24       	eor	r1, r1
    27c0:	9f 57       	subi	r25, 0x7F	; 127
    27c2:	50 40       	sbci	r21, 0x00	; 0
    27c4:	8a f0       	brmi	.+34     	; 0x27e8 <__mulsf3_pse+0x84>
    27c6:	e1 f0       	breq	.+56     	; 0x2800 <__mulsf3_pse+0x9c>
    27c8:	88 23       	and	r24, r24
    27ca:	4a f0       	brmi	.+18     	; 0x27de <__mulsf3_pse+0x7a>
    27cc:	ee 0f       	add	r30, r30
    27ce:	ff 1f       	adc	r31, r31
    27d0:	bb 1f       	adc	r27, r27
    27d2:	66 1f       	adc	r22, r22
    27d4:	77 1f       	adc	r23, r23
    27d6:	88 1f       	adc	r24, r24
    27d8:	91 50       	subi	r25, 0x01	; 1
    27da:	50 40       	sbci	r21, 0x00	; 0
    27dc:	a9 f7       	brne	.-22     	; 0x27c8 <__mulsf3_pse+0x64>
    27de:	9e 3f       	cpi	r25, 0xFE	; 254
    27e0:	51 05       	cpc	r21, r1
    27e2:	70 f0       	brcs	.+28     	; 0x2800 <__mulsf3_pse+0x9c>
    27e4:	bd ce       	rjmp	.-646    	; 0x2560 <__fp_inf>
    27e6:	65 cf       	rjmp	.-310    	; 0x26b2 <__fp_szero>
    27e8:	5f 3f       	cpi	r21, 0xFF	; 255
    27ea:	ec f3       	brlt	.-6      	; 0x27e6 <__mulsf3_pse+0x82>
    27ec:	98 3e       	cpi	r25, 0xE8	; 232
    27ee:	dc f3       	brlt	.-10     	; 0x27e6 <__mulsf3_pse+0x82>
    27f0:	86 95       	lsr	r24
    27f2:	77 95       	ror	r23
    27f4:	67 95       	ror	r22
    27f6:	b7 95       	ror	r27
    27f8:	f7 95       	ror	r31
    27fa:	e7 95       	ror	r30
    27fc:	9f 5f       	subi	r25, 0xFF	; 255
    27fe:	c1 f7       	brne	.-16     	; 0x27f0 <__mulsf3_pse+0x8c>
    2800:	fe 2b       	or	r31, r30
    2802:	88 0f       	add	r24, r24
    2804:	91 1d       	adc	r25, r1
    2806:	96 95       	lsr	r25
    2808:	87 95       	ror	r24
    280a:	97 f9       	bld	r25, 7
    280c:	08 95       	ret

0000280e <round>:
    280e:	36 df       	rcall	.-404    	; 0x267c <__fp_splitA>
    2810:	e0 f0       	brcs	.+56     	; 0x284a <round+0x3c>
    2812:	9e 37       	cpi	r25, 0x7E	; 126
    2814:	d8 f0       	brcs	.+54     	; 0x284c <round+0x3e>
    2816:	96 39       	cpi	r25, 0x96	; 150
    2818:	b8 f4       	brcc	.+46     	; 0x2848 <round+0x3a>
    281a:	9e 38       	cpi	r25, 0x8E	; 142
    281c:	48 f4       	brcc	.+18     	; 0x2830 <round+0x22>
    281e:	67 2f       	mov	r22, r23
    2820:	78 2f       	mov	r23, r24
    2822:	88 27       	eor	r24, r24
    2824:	98 5f       	subi	r25, 0xF8	; 248
    2826:	f9 cf       	rjmp	.-14     	; 0x281a <round+0xc>
    2828:	86 95       	lsr	r24
    282a:	77 95       	ror	r23
    282c:	67 95       	ror	r22
    282e:	93 95       	inc	r25
    2830:	95 39       	cpi	r25, 0x95	; 149
    2832:	d0 f3       	brcs	.-12     	; 0x2828 <round+0x1a>
    2834:	b6 2f       	mov	r27, r22
    2836:	b1 70       	andi	r27, 0x01	; 1
    2838:	6b 0f       	add	r22, r27
    283a:	71 1d       	adc	r23, r1
    283c:	81 1d       	adc	r24, r1
    283e:	20 f4       	brcc	.+8      	; 0x2848 <round+0x3a>
    2840:	87 95       	ror	r24
    2842:	77 95       	ror	r23
    2844:	67 95       	ror	r22
    2846:	93 95       	inc	r25
    2848:	4d c0       	rjmp	.+154    	; 0x28e4 <__fp_mintl>
    284a:	67 c0       	rjmp	.+206    	; 0x291a <__fp_mpack>
    284c:	32 cf       	rjmp	.-412    	; 0x26b2 <__fp_szero>

0000284e <sin>:
    284e:	9f 93       	push	r25
    2850:	c4 de       	rcall	.-632    	; 0x25da <__fp_rempio2>
    2852:	0f 90       	pop	r0
    2854:	07 fc       	sbrc	r0, 7
    2856:	ee 5f       	subi	r30, 0xFE	; 254
    2858:	f8 ce       	rjmp	.-528    	; 0x264a <__fp_sinus>
    285a:	11 f4       	brne	.+4      	; 0x2860 <sin+0x12>
    285c:	0e f4       	brtc	.+2      	; 0x2860 <sin+0x12>
    285e:	86 ce       	rjmp	.-756    	; 0x256c <__fp_nan>
    2860:	5c c0       	rjmp	.+184    	; 0x291a <__fp_mpack>

00002862 <sqrt>:
    2862:	0c df       	rcall	.-488    	; 0x267c <__fp_splitA>
    2864:	d0 f3       	brcs	.-12     	; 0x285a <sin+0xc>
    2866:	99 23       	and	r25, r25
    2868:	d9 f3       	breq	.-10     	; 0x2860 <sin+0x12>
    286a:	ce f3       	brts	.-14     	; 0x285e <sin+0x10>
    286c:	9f 57       	subi	r25, 0x7F	; 127
    286e:	55 0b       	sbc	r21, r21
    2870:	87 ff       	sbrs	r24, 7
    2872:	61 d0       	rcall	.+194    	; 0x2936 <__fp_norm2>
    2874:	00 24       	eor	r0, r0
    2876:	a0 e6       	ldi	r26, 0x60	; 96
    2878:	40 ea       	ldi	r20, 0xA0	; 160
    287a:	90 01       	movw	r18, r0
    287c:	80 58       	subi	r24, 0x80	; 128
    287e:	56 95       	lsr	r21
    2880:	97 95       	ror	r25
    2882:	28 f4       	brcc	.+10     	; 0x288e <sqrt+0x2c>
    2884:	80 5c       	subi	r24, 0xC0	; 192
    2886:	66 0f       	add	r22, r22
    2888:	77 1f       	adc	r23, r23
    288a:	88 1f       	adc	r24, r24
    288c:	20 f0       	brcs	.+8      	; 0x2896 <sqrt+0x34>
    288e:	26 17       	cp	r18, r22
    2890:	37 07       	cpc	r19, r23
    2892:	48 07       	cpc	r20, r24
    2894:	30 f4       	brcc	.+12     	; 0x28a2 <sqrt+0x40>
    2896:	62 1b       	sub	r22, r18
    2898:	73 0b       	sbc	r23, r19
    289a:	84 0b       	sbc	r24, r20
    289c:	20 29       	or	r18, r0
    289e:	31 29       	or	r19, r1
    28a0:	4a 2b       	or	r20, r26
    28a2:	a6 95       	lsr	r26
    28a4:	17 94       	ror	r1
    28a6:	07 94       	ror	r0
    28a8:	20 25       	eor	r18, r0
    28aa:	31 25       	eor	r19, r1
    28ac:	4a 27       	eor	r20, r26
    28ae:	58 f7       	brcc	.-42     	; 0x2886 <sqrt+0x24>
    28b0:	66 0f       	add	r22, r22
    28b2:	77 1f       	adc	r23, r23
    28b4:	88 1f       	adc	r24, r24
    28b6:	20 f0       	brcs	.+8      	; 0x28c0 <sqrt+0x5e>
    28b8:	26 17       	cp	r18, r22
    28ba:	37 07       	cpc	r19, r23
    28bc:	48 07       	cpc	r20, r24
    28be:	30 f4       	brcc	.+12     	; 0x28cc <sqrt+0x6a>
    28c0:	62 0b       	sbc	r22, r18
    28c2:	73 0b       	sbc	r23, r19
    28c4:	84 0b       	sbc	r24, r20
    28c6:	20 0d       	add	r18, r0
    28c8:	31 1d       	adc	r19, r1
    28ca:	41 1d       	adc	r20, r1
    28cc:	a0 95       	com	r26
    28ce:	81 f7       	brne	.-32     	; 0x28b0 <sqrt+0x4e>
    28d0:	b9 01       	movw	r22, r18
    28d2:	84 2f       	mov	r24, r20
    28d4:	91 58       	subi	r25, 0x81	; 129
    28d6:	88 0f       	add	r24, r24
    28d8:	96 95       	lsr	r25
    28da:	87 95       	ror	r24
    28dc:	08 95       	ret

000028de <square>:
    28de:	9b 01       	movw	r18, r22
    28e0:	ac 01       	movw	r20, r24
    28e2:	32 cf       	rjmp	.-412    	; 0x2748 <__mulsf3>

000028e4 <__fp_mintl>:
    28e4:	88 23       	and	r24, r24
    28e6:	71 f4       	brne	.+28     	; 0x2904 <__fp_mintl+0x20>
    28e8:	77 23       	and	r23, r23
    28ea:	21 f0       	breq	.+8      	; 0x28f4 <__fp_mintl+0x10>
    28ec:	98 50       	subi	r25, 0x08	; 8
    28ee:	87 2b       	or	r24, r23
    28f0:	76 2f       	mov	r23, r22
    28f2:	07 c0       	rjmp	.+14     	; 0x2902 <__fp_mintl+0x1e>
    28f4:	66 23       	and	r22, r22
    28f6:	11 f4       	brne	.+4      	; 0x28fc <__fp_mintl+0x18>
    28f8:	99 27       	eor	r25, r25
    28fa:	0d c0       	rjmp	.+26     	; 0x2916 <__fp_mintl+0x32>
    28fc:	90 51       	subi	r25, 0x10	; 16
    28fe:	86 2b       	or	r24, r22
    2900:	70 e0       	ldi	r23, 0x00	; 0
    2902:	60 e0       	ldi	r22, 0x00	; 0
    2904:	2a f0       	brmi	.+10     	; 0x2910 <__fp_mintl+0x2c>
    2906:	9a 95       	dec	r25
    2908:	66 0f       	add	r22, r22
    290a:	77 1f       	adc	r23, r23
    290c:	88 1f       	adc	r24, r24
    290e:	da f7       	brpl	.-10     	; 0x2906 <__fp_mintl+0x22>
    2910:	88 0f       	add	r24, r24
    2912:	96 95       	lsr	r25
    2914:	87 95       	ror	r24
    2916:	97 f9       	bld	r25, 7
    2918:	08 95       	ret

0000291a <__fp_mpack>:
    291a:	9f 3f       	cpi	r25, 0xFF	; 255
    291c:	31 f0       	breq	.+12     	; 0x292a <__fp_mpack_finite+0xc>

0000291e <__fp_mpack_finite>:
    291e:	91 50       	subi	r25, 0x01	; 1
    2920:	20 f4       	brcc	.+8      	; 0x292a <__fp_mpack_finite+0xc>
    2922:	87 95       	ror	r24
    2924:	77 95       	ror	r23
    2926:	67 95       	ror	r22
    2928:	b7 95       	ror	r27
    292a:	88 0f       	add	r24, r24
    292c:	91 1d       	adc	r25, r1
    292e:	96 95       	lsr	r25
    2930:	87 95       	ror	r24
    2932:	97 f9       	bld	r25, 7
    2934:	08 95       	ret

00002936 <__fp_norm2>:
    2936:	91 50       	subi	r25, 0x01	; 1
    2938:	50 40       	sbci	r21, 0x00	; 0
    293a:	66 0f       	add	r22, r22
    293c:	77 1f       	adc	r23, r23
    293e:	88 1f       	adc	r24, r24
    2940:	d2 f7       	brpl	.-12     	; 0x2936 <__fp_norm2>
    2942:	08 95       	ret

00002944 <__fp_powsodd>:
    2944:	9f 93       	push	r25
    2946:	8f 93       	push	r24
    2948:	7f 93       	push	r23
    294a:	6f 93       	push	r22
    294c:	ff 93       	push	r31
    294e:	ef 93       	push	r30
    2950:	9b 01       	movw	r18, r22
    2952:	ac 01       	movw	r20, r24
    2954:	f9 de       	rcall	.-526    	; 0x2748 <__mulsf3>
    2956:	ef 91       	pop	r30
    2958:	ff 91       	pop	r31
    295a:	0b de       	rcall	.-1002   	; 0x2572 <__fp_powser>
    295c:	2f 91       	pop	r18
    295e:	3f 91       	pop	r19
    2960:	4f 91       	pop	r20
    2962:	5f 91       	pop	r21
    2964:	f1 ce       	rjmp	.-542    	; 0x2748 <__mulsf3>

00002966 <__divmodhi4>:
    2966:	97 fb       	bst	r25, 7
    2968:	07 2e       	mov	r0, r23
    296a:	16 f4       	brtc	.+4      	; 0x2970 <__divmodhi4+0xa>
    296c:	00 94       	com	r0
    296e:	06 d0       	rcall	.+12     	; 0x297c <__divmodhi4_neg1>
    2970:	77 fd       	sbrc	r23, 7
    2972:	08 d0       	rcall	.+16     	; 0x2984 <__divmodhi4_neg2>
    2974:	27 d0       	rcall	.+78     	; 0x29c4 <__udivmodhi4>
    2976:	07 fc       	sbrc	r0, 7
    2978:	05 d0       	rcall	.+10     	; 0x2984 <__divmodhi4_neg2>
    297a:	3e f4       	brtc	.+14     	; 0x298a <__divmodhi4_exit>

0000297c <__divmodhi4_neg1>:
    297c:	90 95       	com	r25
    297e:	81 95       	neg	r24
    2980:	9f 4f       	sbci	r25, 0xFF	; 255
    2982:	08 95       	ret

00002984 <__divmodhi4_neg2>:
    2984:	70 95       	com	r23
    2986:	61 95       	neg	r22
    2988:	7f 4f       	sbci	r23, 0xFF	; 255

0000298a <__divmodhi4_exit>:
    298a:	08 95       	ret

0000298c <__divmodsi4>:
    298c:	05 2e       	mov	r0, r21
    298e:	97 fb       	bst	r25, 7
    2990:	16 f4       	brtc	.+4      	; 0x2996 <__divmodsi4+0xa>
    2992:	00 94       	com	r0
    2994:	0f d0       	rcall	.+30     	; 0x29b4 <__negsi2>
    2996:	57 fd       	sbrc	r21, 7
    2998:	05 d0       	rcall	.+10     	; 0x29a4 <__divmodsi4_neg2>
    299a:	28 d0       	rcall	.+80     	; 0x29ec <__udivmodsi4>
    299c:	07 fc       	sbrc	r0, 7
    299e:	02 d0       	rcall	.+4      	; 0x29a4 <__divmodsi4_neg2>
    29a0:	46 f4       	brtc	.+16     	; 0x29b2 <__divmodsi4_exit>
    29a2:	08 c0       	rjmp	.+16     	; 0x29b4 <__negsi2>

000029a4 <__divmodsi4_neg2>:
    29a4:	50 95       	com	r21
    29a6:	40 95       	com	r20
    29a8:	30 95       	com	r19
    29aa:	21 95       	neg	r18
    29ac:	3f 4f       	sbci	r19, 0xFF	; 255
    29ae:	4f 4f       	sbci	r20, 0xFF	; 255
    29b0:	5f 4f       	sbci	r21, 0xFF	; 255

000029b2 <__divmodsi4_exit>:
    29b2:	08 95       	ret

000029b4 <__negsi2>:
    29b4:	90 95       	com	r25
    29b6:	80 95       	com	r24
    29b8:	70 95       	com	r23
    29ba:	61 95       	neg	r22
    29bc:	7f 4f       	sbci	r23, 0xFF	; 255
    29be:	8f 4f       	sbci	r24, 0xFF	; 255
    29c0:	9f 4f       	sbci	r25, 0xFF	; 255
    29c2:	08 95       	ret

000029c4 <__udivmodhi4>:
    29c4:	aa 1b       	sub	r26, r26
    29c6:	bb 1b       	sub	r27, r27
    29c8:	51 e1       	ldi	r21, 0x11	; 17
    29ca:	07 c0       	rjmp	.+14     	; 0x29da <__udivmodhi4_ep>

000029cc <__udivmodhi4_loop>:
    29cc:	aa 1f       	adc	r26, r26
    29ce:	bb 1f       	adc	r27, r27
    29d0:	a6 17       	cp	r26, r22
    29d2:	b7 07       	cpc	r27, r23
    29d4:	10 f0       	brcs	.+4      	; 0x29da <__udivmodhi4_ep>
    29d6:	a6 1b       	sub	r26, r22
    29d8:	b7 0b       	sbc	r27, r23

000029da <__udivmodhi4_ep>:
    29da:	88 1f       	adc	r24, r24
    29dc:	99 1f       	adc	r25, r25
    29de:	5a 95       	dec	r21
    29e0:	a9 f7       	brne	.-22     	; 0x29cc <__udivmodhi4_loop>
    29e2:	80 95       	com	r24
    29e4:	90 95       	com	r25
    29e6:	bc 01       	movw	r22, r24
    29e8:	cd 01       	movw	r24, r26
    29ea:	08 95       	ret

000029ec <__udivmodsi4>:
    29ec:	a1 e2       	ldi	r26, 0x21	; 33
    29ee:	1a 2e       	mov	r1, r26
    29f0:	aa 1b       	sub	r26, r26
    29f2:	bb 1b       	sub	r27, r27
    29f4:	fd 01       	movw	r30, r26
    29f6:	0d c0       	rjmp	.+26     	; 0x2a12 <__udivmodsi4_ep>

000029f8 <__udivmodsi4_loop>:
    29f8:	aa 1f       	adc	r26, r26
    29fa:	bb 1f       	adc	r27, r27
    29fc:	ee 1f       	adc	r30, r30
    29fe:	ff 1f       	adc	r31, r31
    2a00:	a2 17       	cp	r26, r18
    2a02:	b3 07       	cpc	r27, r19
    2a04:	e4 07       	cpc	r30, r20
    2a06:	f5 07       	cpc	r31, r21
    2a08:	20 f0       	brcs	.+8      	; 0x2a12 <__udivmodsi4_ep>
    2a0a:	a2 1b       	sub	r26, r18
    2a0c:	b3 0b       	sbc	r27, r19
    2a0e:	e4 0b       	sbc	r30, r20
    2a10:	f5 0b       	sbc	r31, r21

00002a12 <__udivmodsi4_ep>:
    2a12:	66 1f       	adc	r22, r22
    2a14:	77 1f       	adc	r23, r23
    2a16:	88 1f       	adc	r24, r24
    2a18:	99 1f       	adc	r25, r25
    2a1a:	1a 94       	dec	r1
    2a1c:	69 f7       	brne	.-38     	; 0x29f8 <__udivmodsi4_loop>
    2a1e:	60 95       	com	r22
    2a20:	70 95       	com	r23
    2a22:	80 95       	com	r24
    2a24:	90 95       	com	r25
    2a26:	9b 01       	movw	r18, r22
    2a28:	ac 01       	movw	r20, r24
    2a2a:	bd 01       	movw	r22, r26
    2a2c:	cf 01       	movw	r24, r30
    2a2e:	08 95       	ret

00002a30 <do_rand>:
    2a30:	8f 92       	push	r8
    2a32:	9f 92       	push	r9
    2a34:	af 92       	push	r10
    2a36:	bf 92       	push	r11
    2a38:	cf 92       	push	r12
    2a3a:	df 92       	push	r13
    2a3c:	ef 92       	push	r14
    2a3e:	ff 92       	push	r15
    2a40:	cf 93       	push	r28
    2a42:	df 93       	push	r29
    2a44:	ec 01       	movw	r28, r24
    2a46:	68 81       	ld	r22, Y
    2a48:	79 81       	ldd	r23, Y+1	; 0x01
    2a4a:	8a 81       	ldd	r24, Y+2	; 0x02
    2a4c:	9b 81       	ldd	r25, Y+3	; 0x03
    2a4e:	61 15       	cp	r22, r1
    2a50:	71 05       	cpc	r23, r1
    2a52:	81 05       	cpc	r24, r1
    2a54:	91 05       	cpc	r25, r1
    2a56:	21 f4       	brne	.+8      	; 0x2a60 <do_rand+0x30>
    2a58:	64 e2       	ldi	r22, 0x24	; 36
    2a5a:	79 ed       	ldi	r23, 0xD9	; 217
    2a5c:	8b e5       	ldi	r24, 0x5B	; 91
    2a5e:	97 e0       	ldi	r25, 0x07	; 7
    2a60:	2d e1       	ldi	r18, 0x1D	; 29
    2a62:	33 ef       	ldi	r19, 0xF3	; 243
    2a64:	41 e0       	ldi	r20, 0x01	; 1
    2a66:	50 e0       	ldi	r21, 0x00	; 0
    2a68:	91 df       	rcall	.-222    	; 0x298c <__divmodsi4>
    2a6a:	49 01       	movw	r8, r18
    2a6c:	5a 01       	movw	r10, r20
    2a6e:	9b 01       	movw	r18, r22
    2a70:	ac 01       	movw	r20, r24
    2a72:	a7 ea       	ldi	r26, 0xA7	; 167
    2a74:	b1 e4       	ldi	r27, 0x41	; 65
    2a76:	56 d0       	rcall	.+172    	; 0x2b24 <__muluhisi3>
    2a78:	6b 01       	movw	r12, r22
    2a7a:	7c 01       	movw	r14, r24
    2a7c:	ac ee       	ldi	r26, 0xEC	; 236
    2a7e:	b4 ef       	ldi	r27, 0xF4	; 244
    2a80:	a5 01       	movw	r20, r10
    2a82:	94 01       	movw	r18, r8
    2a84:	5b d0       	rcall	.+182    	; 0x2b3c <__mulohisi3>
    2a86:	dc 01       	movw	r26, r24
    2a88:	cb 01       	movw	r24, r22
    2a8a:	8c 0d       	add	r24, r12
    2a8c:	9d 1d       	adc	r25, r13
    2a8e:	ae 1d       	adc	r26, r14
    2a90:	bf 1d       	adc	r27, r15
    2a92:	b7 ff       	sbrs	r27, 7
    2a94:	03 c0       	rjmp	.+6      	; 0x2a9c <do_rand+0x6c>
    2a96:	01 97       	sbiw	r24, 0x01	; 1
    2a98:	a1 09       	sbc	r26, r1
    2a9a:	b0 48       	sbci	r27, 0x80	; 128
    2a9c:	88 83       	st	Y, r24
    2a9e:	99 83       	std	Y+1, r25	; 0x01
    2aa0:	aa 83       	std	Y+2, r26	; 0x02
    2aa2:	bb 83       	std	Y+3, r27	; 0x03
    2aa4:	9f 77       	andi	r25, 0x7F	; 127
    2aa6:	df 91       	pop	r29
    2aa8:	cf 91       	pop	r28
    2aaa:	ff 90       	pop	r15
    2aac:	ef 90       	pop	r14
    2aae:	df 90       	pop	r13
    2ab0:	cf 90       	pop	r12
    2ab2:	bf 90       	pop	r11
    2ab4:	af 90       	pop	r10
    2ab6:	9f 90       	pop	r9
    2ab8:	8f 90       	pop	r8
    2aba:	08 95       	ret

00002abc <rand_r>:
    2abc:	b9 cf       	rjmp	.-142    	; 0x2a30 <do_rand>

00002abe <rand>:
    2abe:	80 e0       	ldi	r24, 0x00	; 0
    2ac0:	91 e0       	ldi	r25, 0x01	; 1
    2ac2:	b6 cf       	rjmp	.-148    	; 0x2a30 <do_rand>

00002ac4 <srand>:
    2ac4:	a0 e0       	ldi	r26, 0x00	; 0
    2ac6:	b0 e0       	ldi	r27, 0x00	; 0
    2ac8:	80 93 00 01 	sts	0x0100, r24	; 0x800100 <__DATA_REGION_ORIGIN__>
    2acc:	90 93 01 01 	sts	0x0101, r25	; 0x800101 <__DATA_REGION_ORIGIN__+0x1>
    2ad0:	a0 93 02 01 	sts	0x0102, r26	; 0x800102 <__DATA_REGION_ORIGIN__+0x2>
    2ad4:	b0 93 03 01 	sts	0x0103, r27	; 0x800103 <__DATA_REGION_ORIGIN__+0x3>
    2ad8:	08 95       	ret

00002ada <atoi>:
    2ada:	fc 01       	movw	r30, r24
    2adc:	88 27       	eor	r24, r24
    2ade:	99 27       	eor	r25, r25
    2ae0:	e8 94       	clt
    2ae2:	21 91       	ld	r18, Z+
    2ae4:	20 32       	cpi	r18, 0x20	; 32
    2ae6:	e9 f3       	breq	.-6      	; 0x2ae2 <atoi+0x8>
    2ae8:	29 30       	cpi	r18, 0x09	; 9
    2aea:	10 f0       	brcs	.+4      	; 0x2af0 <atoi+0x16>
    2aec:	2e 30       	cpi	r18, 0x0E	; 14
    2aee:	c8 f3       	brcs	.-14     	; 0x2ae2 <atoi+0x8>
    2af0:	2b 32       	cpi	r18, 0x2B	; 43
    2af2:	39 f0       	breq	.+14     	; 0x2b02 <atoi+0x28>
    2af4:	2d 32       	cpi	r18, 0x2D	; 45
    2af6:	31 f4       	brne	.+12     	; 0x2b04 <atoi+0x2a>
    2af8:	68 94       	set
    2afa:	03 c0       	rjmp	.+6      	; 0x2b02 <atoi+0x28>
    2afc:	0b d0       	rcall	.+22     	; 0x2b14 <__mulhi_const_10>
    2afe:	82 0f       	add	r24, r18
    2b00:	91 1d       	adc	r25, r1
    2b02:	21 91       	ld	r18, Z+
    2b04:	20 53       	subi	r18, 0x30	; 48
    2b06:	2a 30       	cpi	r18, 0x0A	; 10
    2b08:	c8 f3       	brcs	.-14     	; 0x2afc <atoi+0x22>
    2b0a:	1e f4       	brtc	.+6      	; 0x2b12 <atoi+0x38>
    2b0c:	90 95       	com	r25
    2b0e:	81 95       	neg	r24
    2b10:	9f 4f       	sbci	r25, 0xFF	; 255
    2b12:	08 95       	ret

00002b14 <__mulhi_const_10>:
    2b14:	7a e0       	ldi	r23, 0x0A	; 10
    2b16:	97 9f       	mul	r25, r23
    2b18:	90 2d       	mov	r25, r0
    2b1a:	87 9f       	mul	r24, r23
    2b1c:	80 2d       	mov	r24, r0
    2b1e:	91 0d       	add	r25, r1
    2b20:	11 24       	eor	r1, r1
    2b22:	08 95       	ret

00002b24 <__muluhisi3>:
    2b24:	0f d0       	rcall	.+30     	; 0x2b44 <__umulhisi3>
    2b26:	a5 9f       	mul	r26, r21
    2b28:	90 0d       	add	r25, r0
    2b2a:	b4 9f       	mul	r27, r20
    2b2c:	90 0d       	add	r25, r0
    2b2e:	a4 9f       	mul	r26, r20
    2b30:	80 0d       	add	r24, r0
    2b32:	91 1d       	adc	r25, r1
    2b34:	11 24       	eor	r1, r1
    2b36:	08 95       	ret

00002b38 <__mulshisi3>:
    2b38:	b7 ff       	sbrs	r27, 7
    2b3a:	f4 cf       	rjmp	.-24     	; 0x2b24 <__muluhisi3>

00002b3c <__mulohisi3>:
    2b3c:	f3 df       	rcall	.-26     	; 0x2b24 <__muluhisi3>
    2b3e:	82 1b       	sub	r24, r18
    2b40:	93 0b       	sbc	r25, r19
    2b42:	08 95       	ret

00002b44 <__umulhisi3>:
    2b44:	a2 9f       	mul	r26, r18
    2b46:	b0 01       	movw	r22, r0
    2b48:	b3 9f       	mul	r27, r19
    2b4a:	c0 01       	movw	r24, r0
    2b4c:	a3 9f       	mul	r26, r19
    2b4e:	70 0d       	add	r23, r0
    2b50:	81 1d       	adc	r24, r1
    2b52:	11 24       	eor	r1, r1
    2b54:	91 1d       	adc	r25, r1
    2b56:	b2 9f       	mul	r27, r18
    2b58:	70 0d       	add	r23, r0
    2b5a:	81 1d       	adc	r24, r1
    2b5c:	11 24       	eor	r1, r1
    2b5e:	91 1d       	adc	r25, r1
    2b60:	08 95       	ret

00002b62 <_exit>:
    2b62:	f8 94       	cli

00002b64 <__stop_program>:
    2b64:	ff cf       	rjmp	.-2      	; 0x2b64 <__stop_program>
